(dp1
S'output'
p2
S"<type 'exceptions.UnicodeDecodeError'> 'ascii' codec can't decode byte 0xe7 in position 1: ordinal not in range(128)"
p3
sS'layer'
p4
S'/home/henry/prd_web2py/applications/pampers1/controllers/default.py'
p5
sS'code'
p6
S'# -*- coding: utf-8 -*-\n# this file is released under public domain and you can use without limitations\n#\n#########################################################################\n## This is a sample controller\n## - index is the default action of any application\n## - user is required for authentication and authorization\n## - download is for downloading files uploaded in the db (does streaming)\n####rowcontent[\'mobile\'] in db().select(db.history_order.mobile)#########\n# #######################################################################\nimport re\nfrom simhash import Simhash,SimhashIndex\nimport openpyxl\n#from plugin_sqleditable.editable import SQLEDITABLE\n#SQLEDITABLE.init()\nimport sys\n\nprovinces=(u\'\xe5\x8c\x97\xe4\xba\xac\',u\'\xe5\xa4\xa9\xe6\xb4\xa5\',u\'\xe6\xb2\xb3\xe5\x8c\x97\',u\'\xe5\xb1\xb1\xe8\xa5\xbf\',u\'\xe5\x86\x85\xe8\x92\x99\xe5\x8f\xa4\',u\'\xe8\xbe\xbd\xe5\xae\x81\',u\'\xe5\x90\x89\xe6\x9e\x97\',u\'\xe9\xbb\x91\xe9\xbe\x99\xe6\xb1\x9f\',u\'\xe4\xb8\x8a\xe6\xb5\xb7\',u\'\xe6\xb1\x9f\xe8\x8b\x8f\',\n           u\'\xe6\xb5\x99\xe6\xb1\x9f\',u\'\xe5\xae\x89\xe5\xbe\xbd\',u\'\xe7\xa6\x8f\xe5\xbb\xba\',u\'\xe6\xb1\x9f\xe8\xa5\xbf\',u\'\xe5\xb1\xb1\xe4\xb8\x9c\',u\'\xe6\xb2\xb3\xe5\x8d\x97\',u\'\xe6\xb9\x96\xe5\x8c\x97\',u\'\xe6\xb9\x96\xe5\x8d\x97\',u\'\xe5\xb9\xbf\xe4\xb8\x9c\',u\'\xe5\xb9\xbf\xe8\xa5\xbf\',\n           u\'\xe6\xb5\xb7\xe5\x8d\x97\',u\'\xe9\x87\x8d\xe5\xba\x86\',u\'\xe5\x9b\x9b\xe5\xb7\x9d\',u\'\xe8\xb4\xb5\xe5\xb7\x9e\',u\'\xe4\xba\x91\xe5\x8d\x97\',u\'\xe8\xa5\xbf\xe8\x97\x8f\',u\'\xe9\x99\x95\xe8\xa5\xbf\',u\'\xe7\x94\x98\xe8\x82\x83\',u\'\xe9\x9d\x92\xe6\xb5\xb7\',u\'\xe5\xae\x81\xe5\xa4\x8f\',\n           u\'\xe6\x96\xb0\xe7\x96\x86\',u\'\xe9\xa6\x99\xe6\xb8\xaf\',u\'\xe6\xbe\xb3\xe9\x97\xa8\',u\'\xe5\x8f\xb0\xe6\xb9\xbe\')\nzhixia=(u\'\xe5\x8c\x97\xe4\xba\xac\',u\'\xe5\xa4\xa9\xe6\xb4\xa5\',u\'\xe9\x87\x8d\xe5\xba\x86\',u\'\xe4\xb8\x8a\xe6\xb5\xb7\')\ntexing=(u\'\xe9\xa6\x99\xe6\xb8\xaf\',u\'\xe6\xbe\xb3\xe9\x97\xa8\')\nSKU_dict={u\'589203710279202\':u\'18\xe7\x89\x87S\xe7\xa0\x81\',\nu\'690314820783301\':u\'18\xe7\x89\x87NB\xe7\xa0\x81\',\nu\'589203710279204\':u\'8\xe7\x89\x87S\xe7\xa0\x81\',\nu\'690314820785503\':u\'8\xe7\x89\x87NB\xe7\xa0\x81\'}\ntop4_city=(u\'\xe5\x8c\x97\xe4\xba\xac\xe5\xb8\x82\',u\'\xe6\x88\x90\xe9\x83\xbd\xe5\xb8\x82\',u\'\xe5\xb9\xbf\xe5\xb7\x9e\xe5\xb8\x82\',u\'\xe4\xb8\x8a\xe6\xb5\xb7\xe5\xb8\x82\')\nA_city=(u\'\xe5\x90\x88\xe8\x82\xa5\xe5\xb8\x82\',u\'\xe7\xa6\x8f\xe5\xb7\x9e\xe5\xb8\x82\',u\'\xe5\x85\xb0\xe5\xb7\x9e\xe5\xb8\x82\',u\'\xe6\xb7\xb1\xe5\x9c\xb3\xe5\xb8\x82\',\'\xe5\x8d\x97\xe5\xae\x81\xe5\xb8\x82\',u\'\xe8\xb4\xb5\xe9\x98\xb3\xe5\xb8\x82\',u\'\xe6\xb5\xb7\xe5\x8f\xa3\xe5\xb8\x82\',u\'\xe7\x9f\xb3\xe5\xae\xb6\xe5\xba\x84\xe5\xb8\x82\',\nu\'\xe9\x83\x91\xe5\xb7\x9e\xe5\xb8\x82\',u\'\xe5\x93\x88\xe5\xb0\x94\xe6\xbb\xa8\xe5\xb8\x82\',u\'\xe6\xad\xa6\xe6\xb1\x89\xe5\xb8\x82\',u\'\xe9\x95\xbf\xe6\xb2\x99\xe5\xb8\x82\',u\'\xe5\x8d\x97\xe4\xba\xac\xe5\xb8\x82\',u\'\xe5\xa4\xa7\xe8\xbf\x9e\xe5\xb8\x82\',u\'\xe6\xb2\x88\xe9\x98\xb3\xe5\xb8\x82\',u\'\xe5\x91\xbc\xe5\x92\x8c\xe6\xb5\xa9\xe7\x89\xb9\xe5\xb8\x82\',\nu\'\xe9\x93\xb6\xe5\xb7\x9d\xe5\xb8\x82\',u\'\xe8\xa5\xbf\xe5\xae\x81\xe5\xb8\x82\',u\'\xe6\xb5\x8e\xe5\x8d\x97\xe5\xb8\x82\',u\'\xe9\x9d\x92\xe5\xb2\x9b\xe5\xb8\x82\',u\'\xe5\xa4\xaa\xe5\x8e\x9f\xe5\xb8\x82\',u\'\xe8\xa5\xbf\xe5\xae\x89\xe5\xb8\x82\',u\'\xe5\xa4\xa9\xe6\xb4\xa5\xe5\xb8\x82\',u\'\xe6\x8b\x89\xe8\x90\xa8\xe5\xb8\x82\',u\'\xe6\x98\x86\xe6\x98\x8e\xe5\xb8\x82\',\nu\'\xe6\x9d\xad\xe5\xb7\x9e\xe5\xb8\x82\',u\'\xe9\x87\x8d\xe5\xba\x86\xe5\xb8\x82\')\n\ndef init_db():\n    db.db_map.insert(table_type=\'excel\',table_name=\'custom_order\',field_name=u\'\xe8\xae\xa2\xe5\x8d\x95\xe7\xbc\x96\xe5\x8f\xb7\',field_id=\'order_id\',field_order=1)\n    db.db_map.insert(table_type=\'excel\',table_name=\'custom_order\',field_name=u\'\xe5\xba\x97\xe9\x93\xba\xe5\x90\x8d\xe7\xa7\xb0\',field_id=\'shop_name\',field_order=2)\n    db.db_map.insert(table_type=\'excel\',table_name=\'custom_order\',field_name=u\'\xe5\xa4\x96\xe9\x83\xa8\xe5\xb9\xb3\xe5\x8f\xb0\xe5\x8d\x95\xe5\x8f\xb7\',field_id=\'ex_id\',field_order=3)\n    db.db_map.insert(table_type=\'excel\',table_name=\'custom_order\',field_name=u\'\xe7\x94\xb5\xe8\xaf\x9d\',field_id=\'telephone\',field_order=4)\n    db.db_map.insert(table_type=\'excel\',table_name=\'custom_order\',field_name=u\'\xe6\x89\x8b\xe6\x9c\xba\',field_id=\'mobile\',field_order=5)\n    db.db_map.insert(table_type=\'excel\',table_name=\'custom_order\',field_name=u\'\xe6\x94\xb6\xe8\xb4\xa7\xe4\xba\xba\',field_id=\'user_name\',field_order=6)\n    db.db_map.insert(table_type=\'excel\',table_name=\'custom_order\',field_name=u\'\xe6\x94\xb6\xe8\xb4\xa7\xe7\x9c\x81\',field_id=\'province\',field_order=7)\n    db.db_map.insert(table_type=\'excel\',table_name=\'custom_order\',field_name=u\'\xe6\x94\xb6\xe8\xb4\xa7\xe5\xb8\x82\',field_id=\'city\',field_order=8)\n    db.db_map.insert(table_type=\'excel\',table_name=\'custom_order\',field_name=u\'\xe6\x94\xb6\xe8\xb4\xa7\xe5\x8e\xbf\',field_id=\'county\',field_order=9)\n    db.db_map.insert(table_type=\'excel\',table_name=\'custom_order\',field_name=u\'\xe6\x94\xb6\xe8\xb4\xa7\xe5\x9c\xb0\xe5\x9d\x80\',field_id=\'address\',field_order=10)\n    db.db_map.insert(table_type=\'excel\',table_name=\'custom_order\',field_name=u\'\xe4\xba\xa7\xe5\x93\x81\xe7\xbc\x96\xe5\x8f\xb7\',field_id=\'product_id\',field_order=11)\n    db.db_map.insert(table_type=\'excel\',table_name=\'custom_order\',field_name=u\'\xe6\x9d\xa1\xe5\xbd\xa2\xe7\xa0\x81\',field_id=\'barcode\',field_order=12)\n    db.db_map.insert(table_type=\'excel\',table_name=\'custom_order\',field_name=u\'\xe8\xa7\x84\xe6\xa0\xbc\',field_id=\'specification\',field_order=13)\n    db.db_map.insert(table_type=\'excel\',table_name=\'custom_order\',field_name=u\'\xe7\xbd\x91\xe5\xba\x97\xe5\x93\x81\xe5\x90\x8d\',field_id=\'ex_product_name\',field_order=14)\n    db.db_map.insert(table_type=\'excel\',table_name=\'custom_order\',field_name=u\'\xe4\xba\xa7\xe5\x93\x81\xe5\x90\x8d\xe7\xa7\xb0\',field_id=\'product_name\',field_order=15)\n    db.db_map.insert(table_type=\'excel\',table_name=\'custom_order\',field_name=u\'\xe8\xae\xa2\xe8\xb4\xa7\xe6\x95\xb0\xe9\x87\x8f\',field_id=\'order_num\',field_order=16)\n    db.db_map.insert(table_type=\'excel\',table_name=\'custom_order\',field_name=u\'\xe7\xbd\x91\xe5\xba\x97\xe8\xa7\x84\xe6\xa0\xbc\',field_id=\'ex_spec\',field_order=17)\n\ndef import_csv(csvfile):\n    db.custom_order.import_from_csv_file(csvfile)\n\ndef get_feature(s):\n    return [s[i:i+2] for i in range(max(len(s)-2+1,1))]\n\'\'\'\n#s=Simhash(get_feature(ws.cell(row=rows,column=10).value,3))\nhistory_data=db().select(db.history_order.order_id,db.history_order.address).as_list()\naddr_obj=[(str(k),Simhash(get_feature(v,3))) for k, v in history_data]\nindex = SimhashIndex(addr_obj, k=3)\nor index.get_near_dups(s) is not None\nand\\(db.history_order.county==ws.cell(row=rows, column=9).value)\nrowcontent[\'relate_history_id\']=buf_list[i][\'order_id\']\nrowcontent[\'wrong_reason\']=u\'\xe4\xb8\x8e\xe5\x8e\x86\xe5\x8f\xb2\xe5\x9c\xb0\xe5\x9d\x80\xe7\xac\xac\'+str(buf_list[i][\'order_id\'])+u\'\xe5\x9c\xb0\xe5\x9d\x80\xe9\x87\x8d\xe5\xa4\x8d\'\nif rowcontent[\'mobile\'] in db().select(db.history_order.mobile) :\n            rowcontent[\'wrong_reason\']=u\'\xe4\xb8\x8e\xe5\x8e\x86\xe5\x8f\xb2\xe9\x87\x8d\xe5\xa4\x8d\'\n            db.incorrect_data.insert(**rowcontent)\n        else:\n            rowcontent[\'product_tag\']=SKU_dict[ws.cell(row=rows,column=12).value]\n                s=s.lower()\n    s=re.sub(r\'[^\\w]+\',\'\',s)\n    db.custom_order.insert(**rowcontent)\xe5\x9b\x9e\xe6\x97\x8f|\xe5\xa3\xae\xe6\x97\x8f|\xe7\xbb\xb4\xe5\xb0\x94\xe5\x90\xbe\xe6\x97\x8f|\xe7\x89\xb9\xe5\x88\xab\xe8\xa1\x8c\xe6\x94\xbf\xe5\x8c\xba|\xe8\x87\xaa\xe6\xb2\xbb\xe5\x8c\xba\n    &\\(re.match(\'\\d{0,2}\',db.history_order.product_name).group()==\\\n                         str(ws1.cell(row=rows,column=10).value))\n\'\'\'\n\ndef wrong_data():\n    response.title = \'wrong_data\'\n    response.view = \'plugin_sqleditable/sample.html\'\n    editable = SQLEDITABLE(db.wrong_order, showid=False, maxrow=29).process()\n    return dict(editable=editable)\n\n#@auth.requires_login()\ndef display_form():\n    grid = SQLFORM.grid(db.wrong_order,fields=\\\n        [db.wrong_order.order_id,db.wrong_order.ex_id,db.wrong_order.mobile,\n        db.wrong_order.user_name,db.wrong_order.province,db.wrong_order.city,\n        db.wrong_order.address,db.wrong_order.wrong_reason,db.wrong_order.dup_ID,\n        db.wrong_order.dup_ex,db.wrong_order.dup_address,db.wrong_order.dup_name,\n        db.wrong_order.dup_phone])\n    return locals()\n\ndef display_pampers_result():\n    grid = SQLFORM.grid(db.pampers_result)\n    return locals()\n\ndef display_pampers_order():\n    grid = SQLFORM.grid(db.pampers_order)\n    return locals()\n\n\'\'\'\ndef data_wrong():\n    form = SQLFORM(db.wrong_order)\n    if form.process().accepted:\n        response.flash = \'form accepted\'\n    elif form.errors:\n        response.flash = \'form has errors\'\n    else:\n        response.flash = \'please fill out the form\'\n    return dict(form=form)\n\'\'\'\n\ndef import_excel(file):\n    wb=openpyxl.load_workbook(file)\n    ws=wb.active\n    field_list = db(db.db_map.table_name==\'custom_order\').select(db.db_map.field_name,db.db_map.field_id).as_list()\n    field_dict = {}\n    for fd in field_list:\n        field_dict[fd[\'field_name\'].decode("utf8")]=fd[\'field_id\']\n    header=[] #\xe8\xa1\xa8\xe5\xa4\xb4\n    for cols in range(1,ws.max_column+1):\n        header.append(field_dict[ws.cell(row=1,column=cols).value])\n    buf_list=[]\n    for rows in range(467,ws.max_row+1):\n        rowcontent={}\n        for cols in range(1,ws.max_column+1):\n            rowcontent[header[cols-1]]=ws.cell(row=rows, column=cols).value\n        rowcontent[\'address\']=rowcontent[\'address\'].replace(rowcontent[\'province\']+u\'\',\'\')\n        rowcontent[\'address\']=rowcontent[\'address\'].replace(u\'\'+rowcontent[\'city\'],\'\')\n        rowcontent[\'address\']=rowcontent[\'address\'].replace(rowcontent[\'county\']+u\'\',\'\')\n        if ws.cell(row=rows, column=9).value !=ws.cell(row=rows-1,column=9):\n            buf_list=db((db.history_order.province==ws.cell(row=rows, column=7).value)&\\\n                        (db.history_order.city==ws.cell(row=rows, column=8).value)&\\\n                        (db.history_order.county==ws.cell(row=rows, column=9).value)&\\\n                        (db.history_order.product_name==SKU_dict[ws.cell(row=rows,column=12).value])).select\\\n                (db.history_order.mobile,db.history_order.address_bak,db.history_order.order_id,\\\n                 db.history_order.ex_id,db.history_order.user_name).as_list()\n        is_correct=1\n        for i in range(0,len(buf_list)):\n            if rowcontent[\'mobile\']==buf_list[i][\'mobile\']:\n                is_correct=0\n                rowcontent[\'wrong_reason\']=u\'\xe4\xb8\x8e\xe5\x8e\x86\xe5\x8f\xb2\xe5\x8f\xb7\xe7\xa0\x81\xe7\xac\xac\'+str(buf_list[i][\'order_id\'])+u\'\xe6\x9d\xa1\xe9\x87\x8d\xe5\xa4\x8d\'\n                rowcontent[\'dup_ID\']=buf_list[i][\'order_id\']\n                rowcontent[\'dup_ex\']=buf_list[i][\'ex_id\']\n                rowcontent[\'dup_address\']=buf_list[i][\'address_bak\']\n                rowcontent[\'dup_name\']=buf_list[i][\'user_name\']\n                rowcontent[\'dup_phone\']=buf_list[i][\'mobile\']\n                db.wrong_order.insert(**rowcontent)\n                break\n            elif Simhash(get_feature(buf_list[i][\'address_bak\'].decode(\'UTF-8\'))).distance(Simhash(get_feature(u\'\'+rowcontent[\'address\'])))<18:\n                is_correct=0\n                rowcontent[\'wrong_reason\']=u\'\xe4\xb8\x8e\xe5\x8e\x86\xe5\x8f\xb2\xe5\x9c\xb0\xe5\x9d\x80\xe7\xac\xac\'+str(buf_list[i][\'order_id\'])+u\'\xe6\x9d\xa1\xe9\x87\x8d\xe5\xa4\x8d\'\n                rowcontent[\'dup_ID\']=buf_list[i][\'order_id\']\n                rowcontent[\'dup_ex\']=buf_list[i][\'ex_id\']\n                rowcontent[\'dup_address\']=buf_list[i][\'address_bak\']\n                rowcontent[\'dup_name\']=buf_list[i][\'user_name\']\n                rowcontent[\'dup_phone\']=buf_list[i][\'mobile\']\n                db.wrong_order.insert(**rowcontent)\n                break\n            else:continue\n        if is_correct==1:\n            if rowcontent[\'user_name\']!= ws.cell(row=rows-1, column=6).value:\n                rowcontent[\'product_tag\']=SKU_dict[ws.cell(row=rows,column=12).value]\n                db.custom_order.insert(**rowcontent)\n    for rows in range(2,467):\n        rowcontent={}\n        for cols in range(1,6+1)+range(11,ws.max_column+1):\n            rowcontent[header[cols-1]]=ws.cell(row=rows, column=cols).value\n        for prov in provinces:\n            if prov in str(ws.cell(row=rows,column=10).value):\n                spare_addr=ws.cell(row=rows,column=10).value.replace(prov,\'\')\n                spare_addr=spare_addr.replace(u\'\xe7\x9c\x81\',\'\')\n                spare_addr=spare_addr.replace(u\'\xe5\xb8\x82\',\'\')\n                if prov in zhixia:\n                    rowcontent[header[6]]=prov+u\'\xe5\xb8\x82\'\n                elif prov in texing:\n                    rowcontent[header[6]]=prov+u\'\xe7\x89\xb9\xe5\x88\xab\xe8\xa1\x8c\xe6\x94\xbf\xe5\x8c\xba\'\n                elif prov==u\'\xe5\xb9\xbf\xe8\xa5\xbf\':\n                    rowcontent[header[6]]=prov+u\'\xe5\xa3\xae\xe6\x97\x8f\xe8\x87\xaa\xe6\xb2\xbb\xe5\x8c\xba\'\n                elif prov==u\'\xe6\x96\xb0\xe7\x96\x86\':\n                    rowcontent[header[6]]=prov+u\'\xe7\xbb\xb4\xe5\x90\xbe\xe5\xb0\x94\xe8\x87\xaa\xe6\xb2\xbb\xe5\x8c\xba\'\n                elif prov==u\'\xe5\xae\x81\xe5\xa4\x8f\':\n                    rowcontent[header[6]]=prov+u\'\xe5\x9b\x9e\xe6\x97\x8f\xe8\x87\xaa\xe6\xb2\xbb\xe5\x8c\xba\'\n                elif prov==u\'\xe8\xa5\xbf\xe8\x97\x8f\':\n                    rowcontent[header[6]]=prov+u\'\xe8\x87\xaa\xe6\xb2\xbb\xe5\x8c\xba\'\n                elif prov==u\'\xe5\x86\x85\xe8\x92\x99\xe5\x8f\xa4\':\n                    rowcontent[header[6]]=prov+u\'\xe8\x87\xaa\xe6\xb2\xbb\xe5\x8c\xba\'\n                else:\n                    rowcontent[header[6]]=prov+u\'\xe7\x9c\x81\'\n                break\n            else:\n                spare_addr=ws.cell(row=rows,column=10).value\n        addr2=re.split(u\'\xe5\xb8\x82|\xe8\x87\xaa\xe6\xb2\xbb\xe5\xb7\x9e\',spare_addr)\n        rowcontent[header[7]]=addr2[0]\n        spare_addr2=re.sub(addr2[0],\'\',spare_addr)\n        spare_addr2=re.sub(u\'\xe5\xb8\x82|\xe8\x87\xaa\xe6\xb2\xbb\xe5\xb7\x9e\',\'\',spare_addr2)\n\n        addr3=re.split(u\'\xe5\x8e\xbf|\xe5\x8c\xba\',spare_addr2)\n        rowcontent[header[8]]=addr3[0]+u\'(\xe5\x8e\xbf)\'\n        spare_addr3=re.sub(addr3[0],\'\',spare_addr2)\n        spare_addr3=re.sub(u\'\xe5\x8e\xbf|\xe5\x8c\xba\',\'\',spare_addr3)\n        rowcontent[header[9]]=spare_addr3\n        if (header[6] not in rowcontent):\n            db.address_lack.insert(**rowcontent)\n        else:\n            buf_list=db((rowcontent[header[6]]==db.history_order.province)&\\\n                        (db.history_order.product_name==SKU_dict[ws.cell(row=rows,column=12).value])).select\\\n                (db.history_order.mobile,db.history_order.address,db.history_order.order_id,\\\n                 db.history_order.ex_id,db.history_order.user_name).as_list()\n            is_correct=1\n            for i in range(0,len(buf_list)):\n                if rowcontent[\'mobile\']==buf_list[i][\'mobile\']:\n                    is_correct=0\n                    rowcontent[\'wrong_reason\']=u\'\xe4\xb8\x8e\xe5\x8e\x86\xe5\x8f\xb2\xe5\x8f\xb7\xe7\xa0\x81\xe7\xac\xac\'+str(buf_list[i][\'order_id\'])+u\'\xe6\x9d\xa1\xe9\x87\x8d\xe5\xa4\x8d\'\n                    rowcontent[\'dup_ID\']=buf_list[i][\'order_id\']\n                    rowcontent[\'dup_ex\']=buf_list[i][\'ex_id\']\n                    rowcontent[\'dup_address\']=buf_list[i][\'address\']\n                    rowcontent[\'dup_name\']=buf_list[i][\'user_name\']\n                    rowcontent[\'dup_phone\']=buf_list[i][\'mobile\']\n                    db.wrong_order.insert(**rowcontent)\n                    break\n                elif Simhash(get_feature(buf_list[i][\'address\'])).distance(Simhash(get_feature(ws.cell(row=rows,column=10).value)))<24:\n                    is_correct=0\n                    rowcontent[\'wrong_reason\']=u\'\xe4\xb8\x8e\xe5\x8e\x86\xe5\x8f\xb2\xe5\x9c\xb0\xe5\x9d\x80\xe7\xac\xac\'+str(buf_list[i][\'order_id\'])+u\'\xe6\x9d\xa1\xe9\x87\x8d\xe5\xa4\x8d\'\n                    rowcontent[\'dup_ID\']=buf_list[i][\'order_id\']\n                    rowcontent[\'dup_ex\']=buf_list[i][\'ex_id\']\n                    rowcontent[\'dup_address\']=buf_list[i][\'address\']\n                    rowcontent[\'dup_name\']=buf_list[i][\'user_name\']\n                    rowcontent[\'dup_phone\']=buf_list[i][\'mobile\']\n                    db.wrong_order.insert(**rowcontent)\n                    break\n                else:continue\n            if is_correct==1:\n                if rowcontent[\'user_name\']!= ws.cell(row=rows-1, column=6).value:\n                    rowcontent[\'product_tag\']=SKU_dict[ws.cell(row=rows,column=12).value]\n                    db.custom_order.insert(**rowcontent)\n\n\npampers_dict={\'order_id\':\'A\',\'ex_id\':\'B\',\'user_name\':\'C\',\'mobile\':\'D\',\'province\':\'E\',\n              \'city\':\'F\',\'county\':\'G\',\'address\':\'H\',\'pregnancy\':\'I\',\'product_piece\':\'J\',\n              \'product_size\':\'K\',\'datetime\':\'L\'}\ndef add_pampers(file):\n    wb1=openpyxl.load_workbook(file)\n    ws1=wb1.active\n    header=[\'order_id\',\'ex_id\',\'user_name\',\'mobile\',\'province\',\'city\',\'county\',\'address\',\n            \'pregnancy\',\'product_piece\',\'product_size\',\'date_time\']\n    \'\'\'\n    for rows in range(1,647):\n        rowcontent={}\n        for cols in range(1,ws1.max_column+1):\n            rowcontent[header[cols-1]]=ws1.cell(row=rows,column=cols).value\n        is_addr_complete=1\n        flag=0\n        for prov in provinces:\n            if prov in unicode(ws1.cell(row=rows,column=8).value):\n                flag=1\n                spare_addr0=ws1.cell(row=rows,column=8).value.replace(prov,\'\')\n                spare_addr0=spare_addr0.replace(u\'\xe7\x9c\x81\',\'\')\n                if prov in zhixia:\n                    rowcontent[header[4]]=prov\n                    rowcontent[header[5]]=prov+u\'\xe5\xb8\x82\'\n                    spare_addr1=spare_addr0[spare_addr0.find(u\'\xe5\xb8\x82\')+1:]\n                elif prov in texing:\n                    rowcontent[header[4]]=prov+u\'\xe7\x89\xb9\xe5\x88\xab\xe8\xa1\x8c\xe6\x94\xbf\xe5\x8c\xba\'\n                elif prov==u\'\xe5\xb9\xbf\xe8\xa5\xbf\':\n                    rowcontent[header[4]]=prov+u\'\xe5\xa3\xae\xe6\x97\x8f\xe8\x87\xaa\xe6\xb2\xbb\xe5\x8c\xba\'\n                    spare_addr1=spare_addr0.replace(u\'\xe5\xa3\xae\xe6\x97\x8f\xe8\x87\xaa\xe6\xb2\xbb\xe5\x8c\xba\',\'\')\n                elif prov==u\'\xe6\x96\xb0\xe7\x96\x86\':\n                    rowcontent[header[4]]=prov+u\'\xe7\xbb\xb4\xe5\x90\xbe\xe5\xb0\x94\xe8\x87\xaa\xe6\xb2\xbb\xe5\x8c\xba\'\n                    spare_addr1=spare_addr0.replace(u\'\xe7\xbb\xb4\xe5\x90\xbe\xe5\xb0\x94\xe8\x87\xaa\xe6\xb2\xbb\xe5\x8c\xba\',\'\')\n                elif prov==u\'\xe5\xae\x81\xe5\xa4\x8f\':\n                    rowcontent[header[4]]=prov+u\'\xe5\x9b\x9e\xe6\x97\x8f\xe8\x87\xaa\xe6\xb2\xbb\xe5\x8c\xba\'\n                    spare_addr1=spare_addr0.replace(u\'\xe5\x9b\x9e\xe6\x97\x8f\xe8\x87\xaa\xe6\xb2\xbb\xe5\x8c\xba\',\'\')\n                elif prov==u\'\xe8\xa5\xbf\xe8\x97\x8f\':\n                    rowcontent[header[4]]=prov+u\'\xe8\x87\xaa\xe6\xb2\xbb\xe5\x8c\xba\'\n                    spare_addr1=spare_addr0.replace(u\'\xe8\x87\xaa\xe6\xb2\xbb\xe5\x8c\xba\',\'\')\n                elif prov==u\'\xe5\x86\x85\xe8\x92\x99\xe5\x8f\xa4\':\n                    rowcontent[header[4]]=prov+u\'\xe8\x87\xaa\xe6\xb2\xbb\xe5\x8c\xba\'\n                    spare_addr1=spare_addr0.replace(u\'\xe8\x87\xaa\xe6\xb2\xbb\xe5\x8c\xba\',\'\')\n                else:\n                    rowcontent[header[4]]=prov+u\'\xe7\x9c\x81\'\n                    spare_addr1=spare_addr0[spare_addr0.find(u\'\xe7\x9c\x81\')+1:]\n                break\n        if flag==0:\n            is_addr_complete=0\n            spare_addr1=ws1.cell(row=rows,column=8).value\n        if (u\'\xe5\xb8\x82\'in spare_addr1):\n            addr2=spare_addr1[0:spare_addr1.find(u\'\xe5\xb8\x82\')+1]\n            spare_addr2=spare_addr1[spare_addr1.find(u\'\xe5\xb8\x82\')+1:]\n            rowcontent[header[5]]=addr2\n        elif u\'\xe8\x87\xaa\xe6\xb2\xbb\xe5\xb7\x9e\'in spare_addr1:\n            addr2=spare_addr1[0:spare_addr1.find(u\'\xe8\x87\xaa\xe6\xb2\xbb\xe5\xb7\x9e\')+3]\n            spare_addr2=spare_addr1[spare_addr1.find(u\'\xe8\x87\xaa\xe6\xb2\xbb\xe5\xb7\x9e\')+3:]\n            rowcontent[header[5]]=addr2\n        elif u\'\xe5\x9c\xb0\xe5\x8c\xba\'in spare_addr1:\n            addr2=spare_addr1[0:spare_addr1.find(u\'\xe5\x9c\xb0\xe5\x8c\xba\')+2]\n            spare_addr2=spare_addr1[spare_addr1.find(u\'\xe5\x9c\xb0\xe5\x8c\xba\')+2:]\n            rowcontent[header[5]]=addr2\n        elif u\'\xe7\x9b\x9f\'in spare_addr1:\n            addr2=spare_addr1[0:spare_addr1.find(u\'\xe7\x9b\x9f\')+1]\n            spare_addr2=spare_addr1[spare_addr1.find(u\'\xe7\x9b\x9f\')+1:]\n            rowcontent[header[5]]=addr2\n        else:\n            spare_addr2=spare_addr1\n            if rowcontent[header[4]] not in zhixia:\n                is_addr_complete=0\n\n        if u\'\xe5\x8e\xbf\'in spare_addr2:\n            addr3=spare_addr2[0:spare_addr2.find(u\'\xe5\x8e\xbf\')+1]\n            spare_addr3=spare_addr2[spare_addr2.find(u\'\xe5\x8e\xbf\')+1:]\n            rowcontent[header[6]]=addr3\n        elif (u\'\xe5\xb8\x82\'in spare_addr2)and (u\'\xe8\xb6\x85\xe5\xb8\x82\' not in spare_addr2)and (u\'\xe5\xb8\x82\xe5\x9c\xba\' not in spare_addr2):\n            addr3=spare_addr2[0:spare_addr2.find(u\'\xe5\xb8\x82\')+1]\n            spare_addr3=spare_addr2[spare_addr2.find(u\'\xe5\xb8\x82\')+1:]\n            rowcontent[header[6]]=addr3\n        elif (u\'\xe5\x8c\xba\'in spare_addr2):\n            addr3=spare_addr2[0:spare_addr2.find(u\'\xe5\x8c\xba\')+1]\n            spare_addr3=spare_addr2[spare_addr2.find(u\'\xe5\x8c\xba\')+1:]\n            rowcontent[header[6]]=addr3\n        else:\n            spare_addr3=spare_addr2\n            is_addr_complete=0\n\n        if is_addr_complete==0:\n            db.pampers_addr_lack.insert(**rowcontent)\n        else:\n            buf_list=db((db.history_order.province==ws1.cell(row=rows, column=5).value)&\\\n                        (db.history_order.city==ws1.cell(row=rows, column=6).value)&\\\n                        (db.history_order.county==ws1.cell(row=rows, column=7).value)).select\\\n                (db.history_order.mobile,db.history_order.address_bak,db.history_order.order_id,\n                 db.history_order.ex_id,db.history_order.user_name).as_list()\n            is_dup=0\n            for i in range(0,len(buf_list)):\n                if rowcontent[\'mobile\']==buf_list[i][\'mobile\']:\n                    is_dup=1\n                    rowcontent[\'wrong_reason\']=u\'\xe4\xb8\x8e\xe5\x8e\x86\xe5\x8f\xb2\xe5\x8f\xb7\xe7\xa0\x81\xe7\xac\xac\'+unicode(buf_list[i][\'order_id\'])+u\'\xe6\x9d\xa1\xe9\x87\x8d\xe5\xa4\x8d\'\n                    rowcontent[\'dup_ID\']=buf_list[i][\'order_id\']\n                    rowcontent[\'dup_ex\']=buf_list[i][\'ex_id\']\n                    rowcontent[\'dup_address\']=buf_list[i][\'address\']\n                    rowcontent[\'dup_name\']=buf_list[i][\'user_name\']\n                    rowcontent[\'dup_phone\']=buf_list[i][\'mobile\']\n                    db.pampers_history_dup.insert(**rowcontent)\n                    break\n                elif Simhash(get_feature(buf_list[i][\'address\'])).distance(Simhash(get_feature(ws1.cell(row=rows,column=10).value)))<24:\n                    is_dup=1\n                    rowcontent[\'wrong_reason\']=u\'\xe4\xb8\x8e\xe5\x8e\x86\xe5\x8f\xb2\xe5\x9c\xb0\xe5\x9d\x80\xe7\xac\xac\'+unicode(buf_list[i][\'order_id\'])+u\'\xe6\x9d\xa1\xe9\x87\x8d\xe5\xa4\x8d\'\n                    rowcontent[\'dup_ID\']=buf_list[i][\'order_id\']\n                    rowcontent[\'dup_ex\']=buf_list[i][\'ex_id\']\n                    rowcontent[\'dup_address\']=buf_list[i][\'address\']\n                    rowcontent[\'dup_name\']=buf_list[i][\'user_name\']\n                    rowcontent[\'dup_phone\']=buf_list[i][\'mobile\']\n                    db.pampers_history_dup.insert(**rowcontent)\n                    break\n                else:continue\n            if is_dup==0:\n                if rowcontent[\'user_name\']== ws1.cell(row=rows-1, column=3).value:\n                    db.pampers_self_dup(**rowcontent)\n                else:\n                    if (rowcontent[\'county\'].endswith(u\'\xe5\x8e\xbf\'))or\\\n                    (rowcontent[\'county\']==u\'\xe6\xb8\x85\xe6\x96\xb0\xe5\x8c\xba\')or\\\n                    (rowcontent[\'county\']==u\'\xe4\xbc\x8a\xe5\xae\x81\xe5\xb8\x82\')or\\\n                    (rowcontent[\'county\']==u\'\xe4\xb8\x87\xe5\xb1\xb1\xe5\x8c\xba\')or\\\n                    (rowcontent[\'county\']==u\'\xe5\x85\xad\xe6\x9e\x9d\xe7\x89\xb9\xe5\x8c\xba\'):\n                        if((u\'\xe6\x9d\x91\'in rowcontent[\'address\'])and(u\'\xe4\xb9\xa1\xe6\x9d\x91\'not in rowcontent[\'address\']))or\\\n                        ((u\'\xe4\xb9\xa1\'in rowcontent[\'address\'])and(u\'\xe4\xb9\xa1\xe6\x9d\x91\'not in rowcontent[\'address\']))or\\\n                        ((u\'\xe9\x95\x87\'in rowcontent[\'address\'])and(u\'\xe5\xb0\x8f\xe9\x95\x87\'not in rowcontent[\'address\'])):\n                            rowcontent[\'class_city\']=\'village\'\n                        else:\n                            rowcontent[\'class_city\']=\'D\'\n                    elif (rowcontent[\'county\'].endswith(u\'\xe5\xb8\x82\'))and\\\n                        (rowcontent[\'county\']!=u\'\xe5\xb7\xa2\xe6\xb9\x96\xe5\xb8\x82\')and\\\n                        (rowcontent[\'county\']!=u\'\xe6\xaf\x95\xe8\x8a\x82\xe5\xb8\x82\'):\n                        rowcontent[\'class_city\']=\'C\'\n                    elif (rowcontent[\'city\'] in top4_city):\n                        rowcontent[\'class_city\']=\'Top4\'\n                    elif(rowcontent[\'city\'] in A_city):\n                        rowcontent[\'class_city\']=\'A\'\n                    else:\n                        rowcontent[\'class_city\']=\'B\'\n                    db.pampers_order.insert(**rowcontent)\n    \'\'\'\n    for rows in range(650,ws1.max_row+1):\n        rowcontent={}\n        buf_list=[]\n        for cols in range(1,ws1.max_column+1):\n            rowcontent[header[cols-1]]=u\'\'+unicode(ws1.cell(row=rows,column=cols).value)\n        rowcontent[\'address\']=rowcontent[\'address\'].replace(rowcontent[\'province\'],\'\')\n        rowcontent[\'address\']=rowcontent[\'address\'].replace(rowcontent[\'city\'],\'\')\n        rowcontent[\'address\']=rowcontent[\'address\'].replace(rowcontent[\'county\'],\'\')\n        if ws1.cell(row=rows,column=7).value ==ws1.cell(row=rows-1,column=7).value:\n            db.pampers_self_dup(**rowcontent)\n        else:\n            buf_list=db((db.history_order.province==ws1.cell(row=rows, column=5).value)&\\\n                        (db.history_order.city==ws1.cell(row=rows, column=6).value)&\\\n                        (db.history_order.county==ws1.cell(row=rows, column=7).value)).select\\\n                (db.history_order.mobile,db.history_order.address_bak,db.history_order.order_id,\n                 db.history_order.ex_id,db.history_order.user_name,db.history_order.product_name).as_list()\n        is_correct=1\n        for i in range(0,len(buf_list)):\n            if buf_list[i][\'product_name\'].startswith((rowcontent[\'product_piece\'])):\n                if rowcontent[\'mobile\']==buf_list[i][\'mobile\']:\n                    is_correct=0\n                    rowcontent[\'wrong_reason\']=u\'\xe4\xb8\x8e\xe5\x8e\x86\xe5\x8f\xb2\xe5\x8f\xb7\xe7\xa0\x81\xe7\xac\xac\'+unicode(buf_list[i][\'order_id\'])+u\'\xe6\x9d\xa1\xe9\x87\x8d\xe5\xa4\x8d\'\n                    rowcontent[\'dup_ID\']=buf_list[i][\'order_id\']\n                    rowcontent[\'dup_ex\']=buf_list[i][\'ex_id\']\n                    rowcontent[\'dup_address\']=buf_list[i][\'address_bak\']\n                    rowcontent[\'dup_name\']=buf_list[i][\'user_name\']\n                    rowcontent[\'dup_phone\']=buf_list[i][\'mobile\']\n                    db.pampers_history_dup.insert(**rowcontent)\n                    break\n                elif Simhash(get_feature(unicode(buf_list[i][\'address_bak\'])))\\\n                        .distance(Simhash(get_feature(unicode(rowcontent[\'address\']))))<5:\n                    is_correct=0\n                    rowcontent[\'wrong_reason\']=u\'\xe4\xb8\x8e\xe5\x8e\x86\xe5\x8f\xb2\xe5\x9c\xb0\xe5\x9d\x80\xe7\xac\xac\'+unicode(buf_list[i][\'order_id\'])+u\'\xe6\x9d\xa1\xe9\x87\x8d\xe5\xa4\x8d\'\n                    rowcontent[\'dup_ID\']=buf_list[i][\'order_id\']\n                    rowcontent[\'dup_ex\']=buf_list[i][\'ex_id\']\n                    rowcontent[\'dup_address\']=buf_list[i][\'address_bak\']\n                    rowcontent[\'dup_name\']=buf_list[i][\'user_name\']\n                    rowcontent[\'dup_phone\']=buf_list[i][\'mobile\']\n                    db.pampers_history_dup.insert(**rowcontent)\n                    break\n                else:continue\n            else:pass\n        if is_correct==1:\n            if rowcontent[\'user_name\'] ==ws1.cell(row=rows-1, column=3).value:\n                db.pampers_self_dup.insert(**rowcontent)\n            else:\n                if (rowcontent[\'county\'].endswith(u\'\xe5\x8e\xbf\'))or\\\n                (rowcontent[\'county\']==u\'\xe6\xb8\x85\xe6\x96\xb0\xe5\x8c\xba\')or\\\n                (rowcontent[\'county\']==u\'\xe4\xbc\x8a\xe5\xae\x81\xe5\xb8\x82\')or\\\n                (rowcontent[\'county\']==u\'\xe4\xb8\x87\xe5\xb1\xb1\xe5\x8c\xba\')or\\\n                (rowcontent[\'county\']==u\'\xe5\x85\xad\xe6\x9e\x9d\xe7\x89\xb9\xe5\x8c\xba\'):\n                    if((u\'\xe6\x9d\x91\'in rowcontent[\'address\'])and(u\'\xe4\xb9\xa1\xe6\x9d\x91\'not in rowcontent[\'address\']))or\\\n                    ((u\'\xe4\xb9\xa1\'in rowcontent[\'address\'])and(u\'\xe4\xb9\xa1\xe6\x9d\x91\'not in rowcontent[\'address\']))or\\\n                    ((u\'\xe9\x95\x87\'in rowcontent[\'address\'])and(u\'\xe5\xb0\x8f\xe9\x95\x87\'not in rowcontent[\'address\'])):\n                        rowcontent[\'class_city\']=\'village\'\n                    else:\n                        rowcontent[\'class_city\']=\'D\'\n                elif (rowcontent[\'county\'].endswith(u\'\xe5\xb8\x82\'))and\\\n                    (rowcontent[\'county\']!=u\'\xe5\xb7\xa2\xe6\xb9\x96\xe5\xb8\x82\')and\\\n                    (rowcontent[\'county\']!=u\'\xe6\xaf\x95\xe8\x8a\x82\xe5\xb8\x82\'):\n                    rowcontent[\'class_city\']=\'C\'\n                elif (rowcontent[\'city\'] in top4_city):\n                    rowcontent[\'class_city\']=\'Top4\'\n                elif(rowcontent[\'city\'] in A_city):\n                    rowcontent[\'class_city\']=\'A\'\n                else:\n                    rowcontent[\'class_city\']=\'B\'\n                db.pampers_order.insert(**rowcontent)\n\ndef pampers_census():\n    row_content={}\n    row_content[\'tag\']=\'November\'\n    row_content[\'distribution\']=db(db.pampers_order.order_id >= 0).count()\n    row_content[\'Top4\']=db(db.pampers_order.class_city==\'Top4\').count()\n    row_content[\'A_city\']=db(db.pampers_order.class_city==\'A\').count()\n    row_content[\'B_city\']=db(db.pampers_order.class_city==\'B\').count()\n    row_content[\'C_city\']=db(db.pampers_order.class_city==\'C\').count()\n    row_content[\'D_city\']=db(db.pampers_order.class_city==\'D\').count()\n    row_content[\'village\']=db(db.pampers_order.class_city==\'village\').count()\n    db.pampers_result.insert(**row_content)\n    row_content={}\n    row_content[\'tag\']=\'percent\'\n    row_content[\'distribution\']=\'100%\'\n    row_content[\'Top4\']=float(db(db.pampers_order.class_city==\'Top4\').count())/db(db.pampers_order.order_id >= 0).count()\n    row_content[\'A_city\']=float(db(db.pampers_order.class_city==\'A\').count())/db(db.pampers_order.order_id >= 0).count()\n    row_content[\'B_city\']=float(db(db.pampers_order.class_city==\'B\').count())/db(db.pampers_order.order_id >= 0).count()\n    row_content[\'C_city\']=float(db(db.pampers_order.class_city==\'C\').count())/db(db.pampers_order.order_id >= 0).count()\n    row_content[\'D_city\']=float(db(db.pampers_order.class_city==\'D\').count())/db(db.pampers_order.order_id >= 0).count()\n    row_content[\'village\']=float(db(db.pampers_order.class_city==\'village\').count())/db(db.pampers_order.order_id >= 0).count()\n    db.pampers_result.insert(**row_content)\n\ndef index():\n    """\n    example action using the internationalization operator T and flash\n    rendered by views/default/index.html or views/generic.html\n    if you need a simple wiki simply replace the two lines below with:\n    return auth.wiki()\n    """\n    #response.flash = T("Hello World")\n    #return dict(message=T(\'Welcome to web2py!\'))\n    if request.vars.csvfile1 != None:\n        import_excel(request.vars.csvfile1.file)\n        response.flash = T(\'data uploaded\')\n    if request.vars.csvfile2 != None:\n        add_pampers(request.vars.csvfile2.file)\n        response.flash = T(\'data uploaded\')\n        pampers_census()\n    return dict()\n\ndef user():\n    """\n    exposes:\n    http://..../[app]/default/user/login\n    http://..../[app]/default/user/logout\n    http://..../[app]/default/user/register\n    http://..../[app]/default/user/profile\n    http://..../[app]/default/user/retrieve_password\n    http://..../[app]/default/user/change_password\n    http://..../[app]/default/user/manage_users (requires membership in\n    http://..../[app]/default/user/bulk_register\n    use @auth.requires_login()\n        @auth.requires_membership(\'group name\')\n        @auth.requires_permission(\'read\',\'table name\',record_id)\n    to decorate functions that need access control\n    """\n    return dict(form=auth())\n\n@cache.action()\ndef download():\n    """\n    allows downloading of uploaded files\n    http://..../[app]/default/download/[filename]\n    """\n    return response.download(request, db)\n\ndef call():\n    """\n    exposes services. for example:\n    http://..../[app]/default/call/jsonrpc\n    decorate with @services.jsonrpc the functions to expose\n    supports xml, json, xmlrpc, jsonrpc, amfrpc, rss, csv\n    """\n    return service()\n\nresponse._vars=response._caller(index)\n'
p7
sS'snapshot'
p8
(dp9
S'exception'
p10
(dp11
S'__getslice__'
p12
S"<method-wrapper '__getslice__' of exceptions.UnicodeDecodeError object>"
p13
sS'encoding'
p14
S"'ascii'"
p15
sS'__str__'
p16
S"<method-wrapper '__str__' of exceptions.UnicodeDecodeError object>"
p17
sS'__reduce__'
p18
S'<built-in method __reduce__ of exceptions.UnicodeDecodeError object>'
p19
sS'__dict__'
p20
S'{}'
p21
sS'__sizeof__'
p22
S'<built-in method __sizeof__ of exceptions.UnicodeDecodeError object>'
p23
sS'__init__'
p24
S"<method-wrapper '__init__' of exceptions.UnicodeDecodeError object>"
p25
sS'__setattr__'
p26
S"<method-wrapper '__setattr__' of exceptions.UnicodeDecodeError object>"
p27
sS'__reduce_ex__'
p28
S'<built-in method __reduce_ex__ of exceptions.UnicodeDecodeError object>'
p29
sS'end'
p30
S'2'
sS'__new__'
p31
S'<built-in method __new__ of type object>'
p32
sS'__format__'
p33
S'<built-in method __format__ of exceptions.UnicodeDecodeError object>'
p34
sS'__class__'
p35
S"<type 'exceptions.UnicodeDecodeError'>"
p36
sS'start'
p37
S'1'
sS'__doc__'
p38
S"'Unicode decoding error.'"
p39
sS'object'
p40
S"'8\\xe7\\x89\\x87S\\xe7\\xa0\\x81'"
p41
sS'__getitem__'
p42
S"<method-wrapper '__getitem__' of exceptions.UnicodeDecodeError object>"
p43
sS'__setstate__'
p44
S'<built-in method __setstate__ of exceptions.UnicodeDecodeError object>'
p45
sS'__getattribute__'
p46
S"<method-wrapper '__getattribute__' of exceptions.UnicodeDecodeError object>"
p47
sS'args'
p48
S"('ascii', '8\\xe7\\x89\\x87S\\xe7\\xa0\\x81', 1, 2, 'ordinal not in range(128)')"
p49
sS'reason'
p50
S"'ordinal not in range(128)'"
p51
sS'__subclasshook__'
p52
S'<built-in method __subclasshook__ of type object>'
p53
sS'__unicode__'
p54
S'<built-in method __unicode__ of exceptions.UnicodeDecodeError object>'
p55
sS'__delattr__'
p56
S"<method-wrapper '__delattr__' of exceptions.UnicodeDecodeError object>"
p57
sS'__repr__'
p58
S"<method-wrapper '__repr__' of exceptions.UnicodeDecodeError object>"
p59
sS'__hash__'
p60
S"<method-wrapper '__hash__' of exceptions.UnicodeDecodeError object>"
p61
ssS'evalue'
p62
S"'ascii' codec can't decode byte 0xe7 in position 1: ordinal not in range(128)"
p63
sS'request'
p64
cgluon.html
XML_unpickle
p65
(S's\xe8X\x00\x00<div><table><tr><td style="font-weight:bold;vertical-align:top;">ajax</td><td style="vertical-align:top;">:</td><td><div>False</div></td></tr><tr><td style="font-weight:bold;vertical-align:top;">application</td><td style="vertical-align:top;">:</td><td><div>pampers1</div></td></tr><tr><td style="font-weight:bold;vertical-align:top;">args</td><td style="vertical-align:top;">:</td><td><div><table></table></div></td></tr><tr><td style="font-weight:bold;vertical-align:top;">cid</td><td style="vertical-align:top;">:</td><td><div>None</div></td></tr><tr><td style="font-weight:bold;vertical-align:top;">client</td><td style="vertical-align:top;">:</td><td><div>113.108.155.51</div></td></tr><tr><td style="font-weight:bold;vertical-align:top;">controller</td><td style="vertical-align:top;">:</td><td><div>default</div></td></tr><tr><td style="font-weight:bold;vertical-align:top;">cookies</td><td style="vertical-align:top;">:</td><td><div><table><tr><td style="font-weight:bold;vertical-align:top;">session_id_admin</td><td style="vertical-align:top;">:</td><td><div>113.108.155.51-4f16ddbd-790a-4b5c-9e5c-b916a3a0b229<table><tr><td style="font-weight:bold;vertical-align:top;">comment</td><td style="vertical-align:top;">:</td><td><div></div></td></tr><tr><td style="font-weight:bold;vertical-align:top;">domain</td><td style="vertical-align:top;">:</td><td><div></div></td></tr><tr><td style="font-weight:bold;vertical-align:top;">expires</td><td style="vertical-align:top;">:</td><td><div></div></td></tr><tr><td style="font-weight:bold;vertical-align:top;">httponly</td><td style="vertical-align:top;">:</td><td><div></div></td></tr><tr><td style="font-weight:bold;vertical-align:top;">max-age</td><td style="vertical-align:top;">:</td><td><div></div></td></tr><tr><td style="font-weight:bold;vertical-align:top;">path</td><td style="vertical-align:top;">:</td><td><div></div></td></tr><tr><td style="font-weight:bold;vertical-align:top;">secure</td><td style="vertical-align:top;">:</td><td><div></div></td></tr><tr><td style="font-weight:bold;vertical-align:top;">version</td><td style="vertical-align:top;">:</td><td><div></div></td></tr></table></div></td></tr><tr><td style="font-weight:bold;vertical-align:top;">session_id_pampers1</td><td style="vertical-align:top;">:</td><td><div>113.108.155.51-ad3d9fc7-7fce-447f-8cfb-55faf62e1b33<table><tr><td style="font-weight:bold;vertical-align:top;">comment</td><td style="vertical-align:top;">:</td><td><div></div></td></tr><tr><td style="font-weight:bold;vertical-align:top;">domain</td><td style="vertical-align:top;">:</td><td><div></div></td></tr><tr><td style="font-weight:bold;vertical-align:top;">expires</td><td style="vertical-align:top;">:</td><td><div></div></td></tr><tr><td style="font-weight:bold;vertical-align:top;">httponly</td><td style="vertical-align:top;">:</td><td><div></div></td></tr><tr><td style="font-weight:bold;vertical-align:top;">max-age</td><td style="vertical-align:top;">:</td><td><div></div></td></tr><tr><td style="font-weight:bold;vertical-align:top;">path</td><td style="vertical-align:top;">:</td><td><div></div></td></tr><tr><td style="font-weight:bold;vertical-align:top;">secure</td><td style="vertical-align:top;">:</td><td><div></div></td></tr><tr><td style="font-weight:bold;vertical-align:top;">version</td><td style="vertical-align:top;">:</td><td><div></div></td></tr></table></div></td></tr><tr><td style="font-weight:bold;vertical-align:top;">session_id_welcome</td><td style="vertical-align:top;">:</td><td><div>113.108.155.51-86d42d94-73e4-4c0e-9074-b25fc7f6c589<table><tr><td style="font-weight:bold;vertical-align:top;">comment</td><td style="vertical-align:top;">:</td><td><div></div></td></tr><tr><td style="font-weight:bold;vertical-align:top;">domain</td><td style="vertical-align:top;">:</td><td><div></div></td></tr><tr><td style="font-weight:bold;vertical-align:top;">expires</td><td style="vertical-align:top;">:</td><td><div></div></td></tr><tr><td style="font-weight:bold;vertical-align:top;">httponly</td><td style="vertical-align:top;">:</td><td><div></div></td></tr><tr><td style="font-weight:bold;vertical-align:top;">max-age</td><td style="vertical-align:top;">:</td><td><div></div></td></tr><tr><td style="font-weight:bold;vertical-align:top;">path</td><td style="vertical-align:top;">:</td><td><div></div></td></tr><tr><td style="font-weight:bold;vertical-align:top;">secure</td><td style="vertical-align:top;">:</td><td><div></div></td></tr><tr><td style="font-weight:bold;vertical-align:top;">version</td><td style="vertical-align:top;">:</td><td><div></div></td></tr></table></div></td></tr></table></div></td></tr><tr><td style="font-weight:bold;vertical-align:top;">env</td><td style="vertical-align:top;">:</td><td><div><table><tr><td style="font-weight:bold;vertical-align:top;">CONTENT_LENGTH</td><td style="vertical-align:top;">:</td><td><div>4612510</div></td></tr><tr><td style="font-weight:bold;vertical-align:top;">CONTENT_TYPE</td><td style="vertical-align:top;">:</td><td><div>multipart/form-data; boundary=----WebKitFormBoundaryHhwwwKayUNLx8C66</div></td></tr><tr><td style="font-weight:bold;vertical-align:top;">DOCUMENT_ROOT</td><td style="vertical-align:top;">:</td><td><div>/usr/share/nginx/html</div></td></tr><tr><td style="font-weight:bold;vertical-align:top;">HTTP_ACCEPT</td><td style="vertical-align:top;">:</td><td><div>text/html,application/xhtml+xml,application/xml;q=0.9,image/webp,*/*;q=0.8</div></td></tr><tr><td style="font-weight:bold;vertical-align:top;">HTTP_ACCEPT_ENCODING</td><td style="vertical-align:top;">:</td><td><div>gzip, deflate</div></td></tr><tr><td style="font-weight:bold;vertical-align:top;">HTTP_ACCEPT_LANGUAGE</td><td style="vertical-align:top;">:</td><td><div>zh-CN,zh;q=0.8</div></td></tr><tr><td style="font-weight:bold;vertical-align:top;">HTTP_CACHE_CONTROL</td><td style="vertical-align:top;">:</td><td><div>max-age=0</div></td></tr><tr><td style="font-weight:bold;vertical-align:top;">HTTP_CONNECTION</td><td style="vertical-align:top;">:</td><td><div>keep-alive</div></td></tr><tr><td style="font-weight:bold;vertical-align:top;">HTTP_CONTENT_LENGTH</td><td style="vertical-align:top;">:</td><td><div>4612510</div></td></tr><tr><td style="font-weight:bold;vertical-align:top;">HTTP_CONTENT_TYPE</td><td style="vertical-align:top;">:</td><td><div>multipart/form-data; boundary=----WebKitFormBoundaryHhwwwKayUNLx8C66</div></td></tr><tr><td style="font-weight:bold;vertical-align:top;">HTTP_COOKIE</td><td style="vertical-align:top;">:</td><td><div>session_id_welcome=113.108.155.51-86d42d94-73e4-4c0e-9074-b25fc7f6c589; session_id_admin=113.108.155.51-4f16ddbd-790a-4b5c-9e5c-b916a3a0b229; session_id_pampers1=113.108.155.51-ad3d9fc7-7fce-447f-8cfb-55faf62e1b33</div></td></tr><tr><td style="font-weight:bold;vertical-align:top;">HTTP_HOST</td><td style="vertical-align:top;">:</td><td><div>int.taotonggroup.com</div></td></tr><tr><td style="font-weight:bold;vertical-align:top;">HTTP_ORIGIN</td><td style="vertical-align:top;">:</td><td><div>https://int.taotonggroup.com</div></td></tr><tr><td style="font-weight:bold;vertical-align:top;">HTTP_REFERER</td><td style="vertical-align:top;">:</td><td><div>https://int.taotonggroup.com/pampers1/default/index</div></td></tr><tr><td style="font-weight:bold;vertical-align:top;">HTTP_UPGRADE_INSECURE_REQUESTS</td><td style="vertical-align:top;">:</td><td><div>1</div></td></tr><tr><td style="font-weight:bold;vertical-align:top;">HTTP_USER_AGENT</td><td style="vertical-align:top;">:</td><td><div>Mozilla/5.0 (Windows NT 6.1; WOW64) AppleWebKit/537.36 (KHTML, like Gecko) Chrome/46.0.2490.86 Safari/537.36</div></td></tr><tr><td style="font-weight:bold;vertical-align:top;">PATH_INFO</td><td style="vertical-align:top;">:</td><td><div>/pampers1/default/index</div></td></tr><tr><td style="font-weight:bold;vertical-align:top;">QUERY_STRING</td><td style="vertical-align:top;">:</td><td><div></div></td></tr><tr><td style="font-weight:bold;vertical-align:top;">REMOTE_ADDR</td><td style="vertical-align:top;">:</td><td><div>113.108.155.51</div></td></tr><tr><td style="font-weight:bold;vertical-align:top;">REMOTE_PORT</td><td style="vertical-align:top;">:</td><td><div>52420</div></td></tr><tr><td style="font-weight:bold;vertical-align:top;">REQUEST_METHOD</td><td style="vertical-align:top;">:</td><td><div>POST</div></td></tr><tr><td style="font-weight:bold;vertical-align:top;">REQUEST_URI</td><td style="vertical-align:top;">:</td><td><div>/pampers1/default/index</div></td></tr><tr><td style="font-weight:bold;vertical-align:top;">SERVER_NAME</td><td style="vertical-align:top;">:</td><td><div>int.taotonggroup.com</div></td></tr><tr><td style="font-weight:bold;vertical-align:top;">SERVER_PORT</td><td style="vertical-align:top;">:</td><td><div>443</div></td></tr><tr><td style="font-weight:bold;vertical-align:top;">SERVER_PROTOCOL</td><td style="vertical-align:top;">:</td><td><div>HTTP/1.1</div></td></tr><tr><td style="font-weight:bold;vertical-align:top;">UWSGI_SCHEME</td><td style="vertical-align:top;">:</td><td><div>https</div></td></tr><tr><td style="font-weight:bold;vertical-align:top;">app_folders</td><td style="vertical-align:top;">:</td><td><div>set([&#x27;/home/henry/prd_web2py/applications/admin/&#x27;, &#x27;/home/henry/prd_web2py/applications/pampers1/&#x27;])</div></td></tr><tr><td style="font-weight:bold;vertical-align:top;">applications_parent</td><td style="vertical-align:top;">:</td><td><div>/home/henry/prd_web2py</div></td></tr><tr><td style="font-weight:bold;vertical-align:top;">content_length</td><td style="vertical-align:top;">:</td><td><div>4612510</div></td></tr><tr><td style="font-weight:bold;vertical-align:top;">content_type</td><td style="vertical-align:top;">:</td><td><div>multipart/form-data; boundary=----WebKitFormBoundaryHhwwwKayUNLx8C66</div></td></tr><tr><td style="font-weight:bold;vertical-align:top;">db_sessions</td><td style="vertical-align:top;">:</td><td><div>set([])</div></td></tr><tr><td style="font-weight:bold;vertical-align:top;">debugging</td><td style="vertical-align:top;">:</td><td><div>False</div></td></tr><tr><td style="font-weight:bold;vertical-align:top;">document_root</td><td style="vertical-align:top;">:</td><td><div>/usr/share/nginx/html</div></td></tr><tr><td style="font-weight:bold;vertical-align:top;">gluon_parent</td><td style="vertical-align:top;">:</td><td><div>/home/henry/prd_web2py</div></td></tr><tr><td style="font-weight:bold;vertical-align:top;">http_accept</td><td style="vertical-align:top;">:</td><td><div>text/html,application/xhtml+xml,application/xml;q=0.9,image/webp,*/*;q=0.8</div></td></tr><tr><td style="font-weight:bold;vertical-align:top;">http_accept_encoding</td><td style="vertical-align:top;">:</td><td><div>gzip, deflate</div></td></tr><tr><td style="font-weight:bold;vertical-align:top;">http_accept_language</td><td style="vertical-align:top;">:</td><td><div>zh-CN,zh;q=0.8</div></td></tr><tr><td style="font-weight:bold;vertical-align:top;">http_cache_control</td><td style="vertical-align:top;">:</td><td><div>max-age=0</div></td></tr><tr><td style="font-weight:bold;vertical-align:top;">http_connection</td><td style="vertical-align:top;">:</td><td><div>keep-alive</div></td></tr><tr><td style="font-weight:bold;vertical-align:top;">http_content_length</td><td style="vertical-align:top;">:</td><td><div>4612510</div></td></tr><tr><td style="font-weight:bold;vertical-align:top;">http_content_type</td><td style="vertical-align:top;">:</td><td><div>multipart/form-data; boundary=----WebKitFormBoundaryHhwwwKayUNLx8C66</div></td></tr><tr><td style="font-weight:bold;vertical-align:top;">http_cookie</td><td style="vertical-align:top;">:</td><td><div>session_id_welcome=113.108.155.51-86d42d94-73e4-4c0e-9074-b25fc7f6c589; session_id_admin=113.108.155.51-4f16ddbd-790a-4b5c-9e5c-b916a3a0b229; session_id_pampers1=113.108.155.51-ad3d9fc7-7fce-447f-8cfb-55faf62e1b33</div></td></tr><tr><td style="font-weight:bold;vertical-align:top;">http_host</td><td style="vertical-align:top;">:</td><td><div>int.taotonggroup.com</div></td></tr><tr><td style="font-weight:bold;vertical-align:top;">http_origin</td><td style="vertical-align:top;">:</td><td><div>https://int.taotonggroup.com</div></td></tr><tr><td style="font-weight:bold;vertical-align:top;">http_referer</td><td style="vertical-align:top;">:</td><td><div>https://int.taotonggroup.com/pampers1/default/index</div></td></tr><tr><td style="font-weight:bold;vertical-align:top;">http_upgrade_insecure_requests</td><td style="vertical-align:top;">:</td><td><div>1</div></td></tr><tr><td style="font-weight:bold;vertical-align:top;">http_user_agent</td><td style="vertical-align:top;">:</td><td><div>Mozilla/5.0 (Windows NT 6.1; WOW64) AppleWebKit/537.36 (KHTML, like Gecko) Chrome/46.0.2490.86 Safari/537.36</div></td></tr><tr><td style="font-weight:bold;vertical-align:top;">is_jython</td><td style="vertical-align:top;">:</td><td><div>False</div></td></tr><tr><td style="font-weight:bold;vertical-align:top;">is_pypy</td><td style="vertical-align:top;">:</td><td><div>False</div></td></tr><tr><td style="font-weight:bold;vertical-align:top;">is_source</td><td style="vertical-align:top;">:</td><td><div>True</div></td></tr><tr><td style="font-weight:bold;vertical-align:top;">local_hosts</td><td style="vertical-align:top;">:</td><td><div><table><tr><td><div>TTdev</div></td></tr><tr><td><div>mx.taotonggroup.com</div></td></tr><tr><td><div>::ffff:127.0.0.1</div></td></tr><tr><td><div>::1</div></td></tr><tr><td><div>113.108.155.51</div></td></tr><tr><td><div>int.taotonggroup.com</div></td></tr><tr><td><div>127.0.0.1</div></td></tr></table></div></td></tr><tr><td style="font-weight:bold;vertical-align:top;">path_info</td><td style="vertical-align:top;">:</td><td><div>/pampers1/default/index</div></td></tr><tr><td style="font-weight:bold;vertical-align:top;">query_string</td><td style="vertical-align:top;">:</td><td><div></div></td></tr><tr><td style="font-weight:bold;vertical-align:top;">remote_addr</td><td style="vertical-align:top;">:</td><td><div>113.108.155.51</div></td></tr><tr><td style="font-weight:bold;vertical-align:top;">remote_port</td><td style="vertical-align:top;">:</td><td><div>52420</div></td></tr><tr><td style="font-weight:bold;vertical-align:top;">request_method</td><td style="vertical-align:top;">:</td><td><div>POST</div></td></tr><tr><td style="font-weight:bold;vertical-align:top;">request_uri</td><td style="vertical-align:top;">:</td><td><div>/pampers1/default/index</div></td></tr><tr><td style="font-weight:bold;vertical-align:top;">server_name</td><td style="vertical-align:top;">:</td><td><div>int.taotonggroup.com</div></td></tr><tr><td style="font-weight:bold;vertical-align:top;">server_port</td><td style="vertical-align:top;">:</td><td><div>443</div></td></tr><tr><td style="font-weight:bold;vertical-align:top;">server_protocol</td><td style="vertical-align:top;">:</td><td><div>HTTP/1.1</div></td></tr><tr><td style="font-weight:bold;vertical-align:top;">uwsgi.node</td><td style="vertical-align:top;">:</td><td><div>TTdev</div></td></tr><tr><td style="font-weight:bold;vertical-align:top;">uwsgi.version</td><td style="vertical-align:top;">:</td><td><div>2.0.11.2</div></td></tr><tr><td style="font-weight:bold;vertical-align:top;">uwsgi_node</td><td style="vertical-align:top;">:</td><td><div>TTdev</div></td></tr><tr><td style="font-weight:bold;vertical-align:top;">uwsgi_scheme</td><td style="vertical-align:top;">:</td><td><div>https</div></td></tr><tr><td style="font-weight:bold;vertical-align:top;">uwsgi_version</td><td style="vertical-align:top;">:</td><td><div>2.0.11.2</div></td></tr><tr><td style="font-weight:bold;vertical-align:top;">web2py_path</td><td style="vertical-align:top;">:</td><td><div>/home/henry/prd_web2py</div></td></tr><tr><td style="font-weight:bold;vertical-align:top;">web2py_version</td><td style="vertical-align:top;">:</td><td><div>2.12.3-stable+timestamp.2015.08.19.00.18.03</div></td></tr><tr><td style="font-weight:bold;vertical-align:top;">wsgi.errors</td><td style="vertical-align:top;">:</td><td><div>&lt;open file &#x27;wsgi_errors&#x27;, mode &#x27;w&#x27; at 0x7f8b657a1b70&gt;</div></td></tr><tr><td style="font-weight:bold;vertical-align:top;">wsgi.file_wrapper</td><td style="vertical-align:top;">:</td><td><div>&lt;built-in function uwsgi_sendfile&gt;</div></td></tr><tr><td style="font-weight:bold;vertical-align:top;">wsgi.input</td><td style="vertical-align:top;">:</td><td><div>&lt;uwsgi._Input object at 0x7f8b651d0bd0&gt;</div></td></tr><tr><td style="font-weight:bold;vertical-align:top;">wsgi.multiprocess</td><td style="vertical-align:top;">:</td><td><div>True</div></td></tr><tr><td style="font-weight:bold;vertical-align:top;">wsgi.multithread</td><td style="vertical-align:top;">:</td><td><div>False</div></td></tr><tr><td style="font-weight:bold;vertical-align:top;">wsgi.run_once</td><td style="vertical-align:top;">:</td><td><div>False</div></td></tr><tr><td style="font-weight:bold;vertical-align:top;">wsgi.url_scheme</td><td style="vertical-align:top;">:</td><td><div>https</div></td></tr><tr><td style="font-weight:bold;vertical-align:top;">wsgi.version</td><td style="vertical-align:top;">:</td><td><div><table><tr><td><div>1</div></td></tr><tr><td><div>0</div></td></tr></table></div></td></tr><tr><td style="font-weight:bold;vertical-align:top;">wsgi_errors</td><td style="vertical-align:top;">:</td><td><div>&lt;open file &#x27;wsgi_errors&#x27;, mode &#x27;w&#x27; at 0x7f8b657a1b70&gt;</div></td></tr><tr><td style="font-weight:bold;vertical-align:top;">wsgi_file_wrapper</td><td style="vertical-align:top;">:</td><td><div>&lt;built-in function uwsgi_sendfile&gt;</div></td></tr><tr><td style="font-weight:bold;vertical-align:top;">wsgi_input</td><td style="vertical-align:top;">:</td><td><div>&lt;uwsgi._Input object at 0x7f8b651d0bd0&gt;</div></td></tr><tr><td style="font-weight:bold;vertical-align:top;">wsgi_multiprocess</td><td style="vertical-align:top;">:</td><td><div>True</div></td></tr><tr><td style="font-weight:bold;vertical-align:top;">wsgi_multithread</td><td style="vertical-align:top;">:</td><td><div>False</div></td></tr><tr><td style="font-weight:bold;vertical-align:top;">wsgi_run_once</td><td style="vertical-align:top;">:</td><td><div>False</div></td></tr><tr><td style="font-weight:bold;vertical-align:top;">wsgi_url_scheme</td><td style="vertical-align:top;">:</td><td><div>https</div></td></tr><tr><td style="font-weight:bold;vertical-align:top;">wsgi_version</td><td style="vertical-align:top;">:</td><td><div><table><tr><td><div>1</div></td></tr><tr><td><div>0</div></td></tr></table></div></td></tr></table></div></td></tr><tr><td style="font-weight:bold;vertical-align:top;">extension</td><td style="vertical-align:top;">:</td><td><div>html</div></td></tr><tr><td style="font-weight:bold;vertical-align:top;">folder</td><td style="vertical-align:top;">:</td><td><div>/home/henry/prd_web2py/applications/pampers1/</div></td></tr><tr><td style="font-weight:bold;vertical-align:top;">function</td><td style="vertical-align:top;">:</td><td><div>index</div></td></tr><tr><td style="font-weight:bold;vertical-align:top;">global_settings</td><td style="vertical-align:top;">:</td><td><div><table><tr><td style="font-weight:bold;vertical-align:top;">app_folders</td><td style="vertical-align:top;">:</td><td><div>set([&#x27;/home/henry/prd_web2py/applications/admin/&#x27;, &#x27;/home/henry/prd_web2py/applications/pampers1/&#x27;])</div></td></tr><tr><td style="font-weight:bold;vertical-align:top;">applications_parent</td><td style="vertical-align:top;">:</td><td><div>/home/henry/prd_web2py</div></td></tr><tr><td style="font-weight:bold;vertical-align:top;">db_sessions</td><td style="vertical-align:top;">:</td><td><div>set([])</div></td></tr><tr><td style="font-weight:bold;vertical-align:top;">debugging</td><td style="vertical-align:top;">:</td><td><div>False</div></td></tr><tr><td style="font-weight:bold;vertical-align:top;">gluon_parent</td><td style="vertical-align:top;">:</td><td><div>/home/henry/prd_web2py</div></td></tr><tr><td style="font-weight:bold;vertical-align:top;">is_jython</td><td style="vertical-align:top;">:</td><td><div>False</div></td></tr><tr><td style="font-weight:bold;vertical-align:top;">is_pypy</td><td style="vertical-align:top;">:</td><td><div>False</div></td></tr><tr><td style="font-weight:bold;vertical-align:top;">is_source</td><td style="vertical-align:top;">:</td><td><div>True</div></td></tr><tr><td style="font-weight:bold;vertical-align:top;">local_hosts</td><td style="vertical-align:top;">:</td><td><div><table><tr><td><div>TTdev</div></td></tr><tr><td><div>mx.taotonggroup.com</div></td></tr><tr><td><div>::ffff:127.0.0.1</div></td></tr><tr><td><div>::1</div></td></tr><tr><td><div>113.108.155.51</div></td></tr><tr><td><div>int.taotonggroup.com</div></td></tr><tr><td><div>127.0.0.1</div></td></tr></table></div></td></tr><tr><td style="font-weight:bold;vertical-align:top;">web2py_version</td><td style="vertical-align:top;">:</td><td><div>2.12.3-stable+timestamp.2015.08.19.00.18.03</div></td></tr></table></div></td></tr><tr><td style="font-weight:bold;vertical-align:top;">is_https</td><td style="vertical-align:top;">:</td><td><div>True</div></td></tr><tr><td style="font-weight:bold;vertical-align:top;">is_local</td><td style="vertical-align:top;">:</td><td><div>True</div></td></tr><tr><td style="font-weight:bold;vertical-align:top;">is_restful</td><td style="vertical-align:top;">:</td><td><div>False</div></td></tr><tr><td style="font-weight:bold;vertical-align:top;">is_sheduler</td><td style="vertical-align:top;">:</td><td><div>None</div></td></tr><tr><td style="font-weight:bold;vertical-align:top;">is_shell</td><td style="vertical-align:top;">:</td><td><div>None</div></td></tr><tr><td style="font-weight:bold;vertical-align:top;">now</td><td style="vertical-align:top;">:</td><td><div>datetime.datetime(2015, 11, 23, 11, 35, 34, 274250)</div></td></tr><tr><td style="font-weight:bold;vertical-align:top;">raw_args</td><td style="vertical-align:top;">:</td><td><div></div></td></tr><tr><td style="font-weight:bold;vertical-align:top;">raw_extension</td><td style="vertical-align:top;">:</td><td><div>None</div></td></tr><tr><td style="font-weight:bold;vertical-align:top;">url</td><td style="vertical-align:top;">:</td><td><div>/pampers1/default/index</div></td></tr><tr><td style="font-weight:bold;vertical-align:top;">utcnow</td><td style="vertical-align:top;">:</td><td><div>datetime.datetime(2015, 11, 23, 3, 35, 34, 274274)</div></td></tr><tr><td style="font-weight:bold;vertical-align:top;">wsgi</td><td style="vertical-align:top;">:</td><td><div>&lt;gluon.main.LazyWSGI object at 0x7f8b5de65f10&gt;</div></td></tr></table></div>'
tRp66
sS'frames'
p67
(lp68
(dp69
S'file'
p70
S'/home/henry/prd_web2py/gluon/restricted.py'
p71
sS'dump'
p72
(dp73
S'environment'
p74
S"{'A': <class 'gluon.html.A'>, 'ANY_OF': <class 'gluon.validators.ANY_OF'>, 'ASSIGNJS': <function ASSIGNJS>, 'A_city': (u'\\u5408\\u80a5\\u5e02', u'\\u798f\\u5dde\\u5e02', u'\\u5170\\u5dde\\u5e02', u'\\u6df1\\u5733\\u5e02', '\\xe5\\x8d\\x97\\xe5\\xae\\x81\\xe5\\xb8\\x82', u'\\u8d35\\u9633\\u5e02', u'\\u6d77\\u53e3\\u5e02', u'\\u77f3\\u5bb6\\u5e84\\u5e02', u'\\u90d1\\u5dde\\u5e02', u'\\u54c8\\u5c14\\u6ee8\\u5e02', u'\\u6b66\\u6c49\\u5e02', u'\\u957f\\u6c99\\u5e02', u'\\u5357\\u4eac\\u5e02', u'\\u5927\\u8fde\\u5e02', u'\\u6c88\\u9633\\u5e02', u'\\u547c\\u548c\\u6d69\\u7279\\u5e02', u'\\u94f6\\u5ddd\\u5e02', u'\\u897f\\u5b81\\u5e02', u'\\u6d4e\\u5357\\u5e02', u'\\u9752\\u5c9b\\u5e02', ...), 'AppConfig': <function AppConfig>, 'Auth': <class 'gluon.tools.Auth'>, 'B': <class 'gluon.html.B'>, 'BEAUTIFY': <class 'gluon.html.BEAUTIFY'>, 'BODY': <class 'gluon.html.BODY'>, 'BR': <class 'gluon.html.BR'>, ...}"
p75
sS'ccode'
p76
S'<code object <module> at 0x7f8b5dd97630, file "/...ations/pampers1/controllers/default.py", line 11>'
p77
ssS'lnum'
p78
I227
sS'lines'
p79
(dp80
I224
S'            ccode = code'
p81
sI225
S'        else:'
p82
sI226
S'            ccode = compile2(code, layer)'
p83
sI227
S'        exec ccode in environment'
p84
sI228
S'    except HTTP:'
p85
sI229
S'        raise'
p86
sI230
S'    except RestrictedError:'
p87
sI231
S'        # do not encapsulate (obfuscate) the original RestrictedError'
p88
sI222
S'    try:'
p89
sI223
S'        if isinstance(code, types.CodeType):'
p90
ssS'call'
p91
S"(code='# -*- coding: utf-8 -*-\\n# this file is released ...ervice()\\n\\nresponse._vars=response._caller(index)\\n', environment={'A': <class 'gluon.html.A'>, 'ANY_OF': <class 'gluon.validators.ANY_OF'>, 'ASSIGNJS': <function ASSIGNJS>, 'A_city': (u'\\u5408\\u80a5\\u5e02', u'\\u798f\\u5dde\\u5e02', u'\\u5170\\u5dde\\u5e02', u'\\u6df1\\u5733\\u5e02', '\\xe5\\x8d\\x97\\xe5\\xae\\x81\\xe5\\xb8\\x82', u'\\u8d35\\u9633\\u5e02', u'\\u6d77\\u53e3\\u5e02', u'\\u77f3\\u5bb6\\u5e84\\u5e02', u'\\u90d1\\u5dde\\u5e02', u'\\u54c8\\u5c14\\u6ee8\\u5e02', u'\\u6b66\\u6c49\\u5e02', u'\\u957f\\u6c99\\u5e02', u'\\u5357\\u4eac\\u5e02', u'\\u5927\\u8fde\\u5e02', u'\\u6c88\\u9633\\u5e02', u'\\u547c\\u548c\\u6d69\\u7279\\u5e02', u'\\u94f6\\u5ddd\\u5e02', u'\\u897f\\u5b81\\u5e02', u'\\u6d4e\\u5357\\u5e02', u'\\u9752\\u5c9b\\u5e02', ...), 'AppConfig': <function AppConfig>, 'Auth': <class 'gluon.tools.Auth'>, 'B': <class 'gluon.html.B'>, 'BEAUTIFY': <class 'gluon.html.BEAUTIFY'>, 'BODY': <class 'gluon.html.BODY'>, 'BR': <class 'gluon.html.BR'>, ...}, layer='/home/henry/prd_web2py/applications/pampers1/controllers/default.py')"
p92
sS'func'
p93
S'restricted'
p94
sa(dp95
g70
S'/home/henry/prd_web2py/applications/pampers1/controllers/default.py'
p96
sg72
(dp97
sg78
I528
sg79
(dp98
I517
S'    return response.download(request, db)'
p99
sI518
S''
sI519
S'def call():'
p100
sI520
S'    """'
p101
sI521
S'    exposes services. for example:'
p102
sI522
S'    http://..../[app]/default/call/jsonrpc'
p103
sI523
S'    decorate with @services.jsonrpc the functions to expose'
p104
sI524
S'    supports xml, json, xmlrpc, jsonrpc, amfrpc, rss, csv'
p105
sI525
S'    """'
p106
sI526
S'    return service()'
p107
ssg91
S'()'
p108
sg93
S'<module>'
p109
sa(dp110
g70
S'/home/henry/prd_web2py/gluon/globals.py'
p111
sg72
(dp112
S'self'
p113
S'undefined'
p114
sS'f'
S'<function index>'
p115
ssg78
I412
sg79
(dp116
I416
S"        self.generic_patterns = ['*']"
p117
sI407
S"        self.flash = ''            # used by the default view layout"
p118
sI408
S'        self.meta = Storage()      # used by web2py_ajax.html'
p119
sI409
S'        self.menu = []             # used by the default view layout'
p120
sI410
S'        self.files = []            # used by web2py_ajax.html'
p121
sI411
S'        self._vars = None'
p122
sI412
S'        self._caller = lambda f: f()'
p123
sI413
S'        self._view_environment = None'
p124
sI414
S'        self._custom_commit = None'
p125
sI415
S'        self._custom_rollback = None'
p126
ssg91
S'(f=<function index>)'
p127
sg93
S'<lambda>'
p128
sa(dp129
g70
S'/home/henry/prd_web2py/applications/pampers1/controllers/default.py'
p130
sg72
(dp131
S'global request'
p132
S"<Storage {'_vars': <Storage {'csvfile2': FieldSt...'/home/henry/prd_web2py/applications/pampers1/'}>"
p133
sS'global add_pampers'
p134
S'<function add_pampers>'
p135
sS'request.vars.csvfile2.file'
p136
S"<open file '<fdopen>', mode 'w+b'>"
p137
sS'request.vars.csvfile2'
p138
S"FieldStorage('csvfile2', 'pampers_all_20151029_2...0\\n\\x00\\n\\x00\\x80\\x02\\x00\\x00\\xfd]F\\x00\\x00\\x00')"
p139
sS'request.vars'
p140
S"<Storage {'csvfile2': FieldStorage('csvfile2', '...n\\x00\\n\\x00\\x80\\x02\\x00\\x00\\xfd]F\\x00\\x00\\x00')}>"
p141
ssg78
I488
sg79
(dp142
I483
S"    #return dict(message=T('Welcome to web2py!'))"
p143
sI484
S'    if request.vars.csvfile1 != None:'
p144
sI485
S'        import_excel(request.vars.csvfile1.file)'
p145
sI486
S"        response.flash = T('data uploaded')"
p146
sI487
S'    if request.vars.csvfile2 != None:'
p147
sI488
S'        add_pampers(request.vars.csvfile2.file)'
p148
sI489
S"        response.flash = T('data uploaded')"
p149
sI490
S'        pampers_census()'
p150
sI491
S'    return dict()'
p151
sI492
S''
ssg91
S'()'
p152
sg93
S'index'
p153
sa(dp154
g70
S'/home/henry/prd_web2py/applications/pampers1/controllers/default.py'
p155
sg72
(dp156
S'i'
S'0'
sS'rowcontent'
p157
S"{'address': u'\\u8001\\u6d32\\u9547\\u65b0\\u5729\\u7ec425\\u53f7', 'city': u'\\u5b89\\u5e86\\u5e02', 'county': u'\\u679e\\u9633\\u53bf', 'date_time': u'20151028 06:16:05', 'ex_id': u'PP02075218', 'mobile': u'13306520461', 'order_id': u'1516161', 'pregnancy': u'\\u5b5538\\u54683\\u5929', 'product_piece': u'8', 'product_size': u'NB', ...}"
p158
sS'].startswith'
p159
g114
sS'buf_list'
p160
S"[{'address_bak': '\\xe7\\xac\\xac\\xe4\\xb8\\x80\\xe4\\xba\\xba\\xe6\\xb0\\x91\\xe5\\x8c\\xbb\\xe9\\x99\\xa2\\xe4\\xba\\xa7\\xe7\\xa7\\x91', 'ex_id': 'BO1505040695600', 'mobile': 18054028865L, 'order_id': 680222, 'product_name': '8\\xe7\\x89\\x87S\\xe7\\xa0\\x81', 'user_name': '\\xe5\\x88\\x98\\xe7\\x8e\\x89\\xe7\\x87\\x95'}, {'address_bak': '\\xe9\\x99\\x88\\xe7\\x91\\xb6\\xe6\\xb9\\x96\\xe9\\x95\\x87\\xe8\\x8a\\xb1\\xe5\\x9b\\xad\\xe8\\xa1\\x97\\xe9\\x81\\x93\\xe4\\xb8\\x89\\xe8\\xa7\\x92\\xe5\\x8c\\xba\\xe8\\xbe\\xb9\\xe5\\x8d\\x83\\xe7\\xa7\\x8d\\xe9\\x97\\xa8\\xe4\\xb8\\x9a', 'ex_id': '\\xe8\\x90\\x8d\\xe7\\xac\\x91', 'mobile': 13624175683L, 'order_id': 684873, 'product_name': '8\\xe7\\x89\\x87S\\xe7\\xa0\\x81', 'user_name': '\\xe6\\xb1\\xaa\\xe4\\xb8\\xbd\\xe8\\x90\\x8d'}, {'address_bak': '\\xe6\\x9e\\x9e\\xe9\\x98\\xb3\\xe9\\x95\\x87\\xe6\\x96\\xb0\\xe5\\xa1\\x98\\xe8\\xa5\\xbf\\xe8\\xb7\\xaf26\\xe5\\x8f\\xb7\\xe5\\x9b\\xbd\\xe6\\xb5\\xb7\\xe6\\x8a\\x95\\xe8\\xb5\\x84\\xe6\\x9c\\x89\\xe9\\x99\\x90\\xe5\\x85\\xac\\xe5\\x8f\\xb8\\xe4\\xb8\\x80\\xe6\\xa5\\xbc', 'ex_id': '\\xe5\\xa4\\xa7\\xe7\\x8c\\xa9\\xe7\\x8c\\xa9111', 'mobile': 15056668000L, 'order_id': 732628, 'product_name': '8\\xe7\\x89\\x87S\\xe7\\xa0\\x81', 'user_name': '\\xe9\\x92\\xb1\\xe7\\xa3\\x8a'}, {'address_bak': '\\xe9\\xba\\x92\\xe9\\xba\\x9f\\xe9\\x95\\x87\\xe9\\xba\\x92\\xe9\\xba\\x9f\\xe6\\x9d\\x91\\xe5\\xae\\x98\\xe5\\xba\\x84\\xe7\\xbb\\x8420\\xe5\\x8f\\xb7', 'ex_id': '\\xe4\\xb8\\x8d\\xe9\\x94\\x88\\xe9\\x92\\xa2\\xe5\\x8e\\x82\\xe5\\xae\\xb6', 'mobile': 13676768193L, 'order_id': 732629, 'product_name': '8\\xe7\\x89\\x87S\\xe7\\xa0\\x81', 'user_name': '\\xe6\\x96\\xb9\\xe9\\x87\\x91\\xe4\\xb8\\xbd'}, {'address_bak': '\\xe6\\x9e\\x9e\\xe9\\x98\\xb3\\xe9\\x95\\x87\\xe6\\xb9\\x96\\xe6\\xbb\\xa8\\xe4\\xb8\\x9c\\xe8\\xb7\\xaf14\\xe5\\x8f\\xb7\\xe4\\xb8\\xad\\xe5\\x9b\\xbd\\xe4\\xba\\xba\\xe6\\xb0\\x91\\xe8\\xb4\\xa2\\xe4\\xba\\xa7\\xe4\\xbf\\x9d\\xe9\\x99\\xa9\\xe8\\x82\\xa1\\xe4\\xbb\\xbd\\xe6\\x9c\\x89\\xe9\\x99\\x90\\xe5\\x85\\xac\\xe5\\x8f\\xb8\\xe6\\x9e\\x9e\\xe9\\x98\\xb3\\xe6\\x94\\xaf\\xe5\\x85\\xac\\xe5\\x8f\\xb8', 'ex_id': 20150317, 'mobile': 18075395009L, 'order_id': 758242, 'product_name': '8\\xe7\\x89\\x87S\\xe7\\xa0\\x81', 'user_name': '\\xe9\\xbd\\x90\\xe5\\x81\\xa5'}, {'address_bak': '\\xe9\\x92\\xb1\\xe6\\xa1\\xa5\\xe9\\x95\\x87\\xe5\\xae\\xa3\\xe5\\xba\\x84\\xe6\\x9d\\x91', 'ex_id': '\\xe5\\x8f\\x97\\xe4\\xba\\x86\\xe4\\xbc\\xa4\\xe8\\xbf\\x9e\\xe5\\xbe\\xae\\xe7\\xac\\x91\\xe9\\x83\\xbd\\xe5\\xbd\\xb7\\xe5\\xbe\\xa8', 'mobile': 15825130984L, 'order_id': 758243, 'product_name': '8\\xe7\\x89\\x87NB\\xe7\\xa0\\x81', 'user_name': '\\xe4\\xbd\\x99\\xe7\\xad\\xb1\\xe6\\xb6\\xb5'}, {'address_bak': '\\xe9\\xa1\\xb9\\xe9\\x93\\xba\\xe9\\x95\\x87\\xe7\\x99\\xbd\\xe7\\x9f\\xb3\\xe6\\x9d\\x91', 'ex_id': '\\xe8\\x8f\\x8f\\xe6\\xb3\\xbd\\xe9\\x9c\\x82\\xe6\\x9b\\xa6', 'mobile': 15856547801L, 'order_id': 758244, 'product_name': '8\\xe7\\x89\\x87NB\\xe7\\xa0\\x81', 'user_name': '\\xe5\\x90\\xb4\\xe5\\x85\\xa8'}, {'address_bak': '\\xe6\\xa8\\xaa\\xe5\\x9f\\xa0\\xe9\\x95\\x87\\xe6\\xa8\\xaa\\xe5\\x9f\\xa0\\xe6\\x9d\\x91\\xe6\\x96\\xb0\\xe6\\xb0\\x91\\xe7\\xbb\\x8419\\xe5\\x8f\\xb7', 'ex_id': '\\xe5\\xb0\\x8f\\xe4\\xb9\\x8c\\xe9\\xbe\\x9fff', 'mobile': 18156957780L, 'order_id': 798294, 'product_name': '8\\xe7\\x89\\x87NB\\xe7\\xa0\\x81', 'user_name': '\\xe4\\xbb\\xbb\\xe9\\xa3\\x9e'}, {'address_bak': '\\xe9\\x92\\xb1\\xe9\\x93\\xba\\xe4\\xb9\\xa1\\xe9\\xbb\\x84\\xe5\\xb2\\x97\\xe6\\x9d\\x91\\xe4\\xba\\x8c\\xe7\\xbb\\x84', 'ex_id': 'PP01156352', 'mobile': 15261038740L, 'order_id': 813136, 'product_name': '8\\xe7\\x89\\x87NB\\xe7\\xa0\\x81', 'user_name': '\\xe7\\xab\\xa0\\xe7\\x8e\\x89\\xe4\\xba\\x91'}, {'address_bak': '\\xe9\\xa1\\xb9\\xe9\\x93\\xba\\xe9\\x95\\x87\\xe9\\xbe\\x99\\xe8\\x99\\x8e\\xe6\\x9d\\x9116\\xe7\\xbb\\x84', 'ex_id': 'PP01162273', 'mobile': 17755642257L, 'order_id': 813137, 'product_name': '8\\xe7\\x89\\x87NB\\xe7\\xa0\\x81', 'user_name': '\\xe6\\x9f\\xa5\\xe6\\x96\\x87\\xe5\\xa8\\x9f'}, {'address_bak': '\\xe6\\xb1\\xa4\\xe6\\xb2\\x9f\\xe9\\x95\\x87\\xe5\\x8b\\xa4\\xe4\\xbf\\xad\\xe5\\xb0\\x8f\\xe5\\xad\\xa6', 'ex_id': 'PP01187927', 'mobile': 13889528507L, 'order_id': 833452, 'product_name': '8\\xe7\\x89\\x87NB\\xe7\\xa0\\x81', 'user_name': '\\xe8\\xae\\xb8\\xe6\\x96\\x87\\xe5\\xa8\\x9f'}, {'address_bak': '\\xe9\\xba\\x92\\xe9\\xba\\x9f\\xe9\\x95\\x87\\xe6\\xa2\\x85\\xe8\\x8a\\xb1\\xe6\\x9d\\x91', 'ex_id': 'PP01203062', 'mobile': 15212910062L, 'order_id': 839759, 'product_name': '18\\xe7\\x89\\x87NB\\xe7\\xa0\\x81', 'user_name': '\\xe6\\xa8\\x8a\\xe6\\x98\\xad\\xe5\\xa8\\xa3'}, {'address_bak': '\\xe6\\x9e\\x9e\\xe9\\x98\\xb3\\xe9\\x95\\x87\\xe9\\x93\\xb6\\xe5\\xa1\\x98\\xe8\\xa5\\xbf\\xe8\\xb7\\xaf39-25\\xe5\\x90\\x8d\\xe6\\xb4\\xbe', 'ex_id': '\\xe5\\xad\\x95\\xe6\\x9c\\x9f\\xe7\\x94\\xa8\\xe6\\x88\\xb796876582', 'mobile': 13625669657L, 'order_id': 843250, 'product_name': '8\\xe7\\x89\\x87NB\\xe7\\xa0\\x81', 'user_name': '\\xe6\\x96\\xb9\\xe4\\xbf\\xae\\xe6\\x9d\\xa5'}, {'address_bak': '\\xe6\\xb9\\x96\\xe6\\xbb\\xa8\\xe8\\xb7\\xaf\\xe8\\xb4\\xa2\\xe5\\xaf\\x8c\\xe5\\xb9\\xbf\\xe5\\x9c\\xba\\xe5\\x8d\\x8e\\xe6\\xb6\\xa6\\xe8\\x8b\\x8f\\xe6\\x9e\\x9c\\xe4\\xba\\x8c\\xe6\\xa5\\xbc', 'ex_id': 'Daniel_\\xe8\\xb1\\x86\\xe8\\xb1\\x86', 'mobile': 18505562214L, 'order_id': 843251, 'product_name': '8\\xe7\\x89\\x87NB\\xe7\\xa0\\x81', 'user_name': 'Coral'}, {'address_bak': '\\xe9\\x87\\x91\\xe7\\xa4\\xbe\\xe4\\xb9\\xa1\\xe9\\x87\\x91\\xe6\\xb8\\xa1\\xe6\\x9d\\x91\\xe8\\x80\\x81\\xe5\\xb1\\x8b\\xe7\\xbb\\x8423\\xe5\\x8f\\xb7', 'ex_id': '\\xe5\\xa4\\xa7\\xe5\\xae\\x9d\\xe9\\x99\\x88\\xe6\\xa2\\xa6\\xe7\\x90\\xaa', 'mobile': 13167717620L, 'order_id': 843252, 'product_name': '8\\xe7\\x89\\x87NB\\xe7\\xa0\\x81', 'user_name': '\\xe5\\x90\\xb4\\xe7\\x8e\\x89\\xe7\\x90\\xb4'}, {'address_bak': '\\xe5\\x8e\\xbf\\xe5\\x9f\\x8e\\xe7\\x8b\\xae\\xe5\\xb3\\xb0\\xe5\\xb1\\xb1\\xe5\\xb0\\x8f\\xe5\\x8c\\xba\\xe4\\xb8\\x89\\xe7\\xbb\\x84\\xe5\\x9b\\xa2', 'ex_id': '\\xe8\\x90\\x8d\\xe5\\xae\\x9d\\xe5\\xae\\x9d0924', 'mobile': 15505050591L, 'order_id': 843253, 'product_name': '8\\xe7\\x89\\x87S\\xe7\\xa0\\x81', 'user_name': '\\xe9\\x99\\x86\\xe7\\x8e\\x89\\xe8\\x90\\x8d'}, {'address_bak': '\\xe9\\xa1\\xb9\\xe9\\x93\\xba\\xe9\\x95\\x87\\xe9\\xbe\\x99\\xe8\\x99\\x8e\\xe6\\x9d\\x9116\\xe7\\xbb\\x84', 'ex_id': 'PP01226342', 'mobile': 17755642257L, 'order_id': 880587, 'product_name': '18\\xe7\\x89\\x87NB\\xe7\\xa0\\x81', 'user_name': '\\xe9\\x99\\xb6\\xe5\\xaf\\x86'}, {'address_bak': '\\xe9\\x92\\xb1\\xe6\\xa1\\xa5\\xe9\\x95\\x87\\xe9\\x92\\xb1\\xe6\\xa1\\xa5\\xe8\\xa1\\x97\\xe9\\x81\\x9366\\xe5\\x8f\\xb7', 'ex_id': 'PP01234573', 'mobile': 15212939679L, 'order_id': 886998, 'product_name': '18\\xe7\\x89\\x87S\\xe7\\xa0\\x81', 'user_name': '\\xe5\\x90\\xb4\\xe7\\xa7\\x80'}, {'address_bak': '\\xe9\\x99\\x88\\xe7\\x91\\xb6\\xe6\\xb9\\x96\\xe9\\x95\\x87\\xe5\\xae\\x98\\xe6\\xb8\\xa1\\xe6\\x9d\\x91\\xe5\\x9b\\x9b\\xe6\\x96\\xb9\\xe7\\xbb\\x8419\\xe5\\x8f\\xb7', 'ex_id': 'PP01277353', 'mobile': 15755622043L, 'order_id': 898297, 'product_name': '8\\xe7\\x89\\x87NB\\xe7\\xa0\\x81', 'user_name': '\\xe8\\xb0\\xa2\\xe4\\xb8\\xbd'}, {'address_bak': '\\xe4\\xba\\xba\\xe6\\xb0\\x91\\xe5\\x8c\\xbb\\xe9\\x99\\xa2\\xe6\\x80\\xa5\\xe8\\xaf\\x8a\\xe7\\xa7\\x91', 'ex_id': 'PP01269122', 'mobile': 18955659806L, 'order_id': 898298, 'product_name': '18\\xe7\\x89\\x87NB\\xe7\\xa0\\x81', 'user_name': '\\xe5\\x89\\x8d\\xe7\\x9d\\xbf'}, ...]"
p161
ssg78
I402
sg79
(dp162
I397
S'                        (db.history_order.county==ws1.cell(row=rows, column=7).value)).select\\'
p163
sI398
S'                (db.history_order.mobile,db.history_order.address_bak,db.history_order.order_id,'
p164
sI399
S'                 db.history_order.ex_id,db.history_order.user_name,db.history_order.product_name).as_list()'
p165
sI400
S'        is_correct=1'
p166
sI401
S'        for i in range(0,len(buf_list)):'
p167
sI402
S"            if buf_list[i]['product_name'].startswith((rowcontent['product_piece'])):"
p168
sI403
S"                if rowcontent['mobile']==buf_list[i]['mobile']:"
p169
sI404
S'                    is_correct=0'
p170
sI405
S"                    rowcontent['wrong_reason']=u'\xe4\xb8\x8e\xe5\x8e\x86\xe5\x8f\xb2\xe5\x8f\xb7\xe7\xa0\x81\xe7\xac\xac'+unicode(buf_list[i]['order_id'])+u'\xe6\x9d\xa1\xe9\x87\x8d\xe5\xa4\x8d'"
p171
sI406
S"                    rowcontent['dup_ID']=buf_list[i]['order_id']"
p172
ssg91
S"(file=<open file '<fdopen>', mode 'w+b'>)"
p173
sg93
S'add_pampers'
p174
sasS'pyver'
p175
S'Python 2.7.6: /usr/local/bin/uwsgi (prefix: /usr)'
p176
sS'session'
p177
g65
(S's\x1a\x00\x00\x00<div><table></table></div>'
tRp178
sS'etype'
p179
S"<type 'exceptions.UnicodeDecodeError'>"
p180
sS'date'
p181
S'Mon Nov 23 11:35:52 2015'
p182
sS'response'
p183
g65
(S's\xc8?\x00\x00<div><table><tr><td style="font-weight:bold;vertical-align:top;">body</td><td style="vertical-align:top;">:</td><td><div>&lt;cStringIO.StringO object at 0x7f8b5ddb2a78&gt;</div></td></tr><tr><td style="font-weight:bold;vertical-align:top;">cookies</td><td style="vertical-align:top;">:</td><td><div><table><tr><td style="font-weight:bold;vertical-align:top;">session_id_pampers1</td><td style="vertical-align:top;">:</td><td><div>113.108.155.51-ad3d9fc7-7fce-447f-8cfb-55faf62e1b33<table><tr><td style="font-weight:bold;vertical-align:top;">comment</td><td style="vertical-align:top;">:</td><td><div></div></td></tr><tr><td style="font-weight:bold;vertical-align:top;">domain</td><td style="vertical-align:top;">:</td><td><div></div></td></tr><tr><td style="font-weight:bold;vertical-align:top;">expires</td><td style="vertical-align:top;">:</td><td><div></div></td></tr><tr><td style="font-weight:bold;vertical-align:top;">httponly</td><td style="vertical-align:top;">:</td><td><div></div></td></tr><tr><td style="font-weight:bold;vertical-align:top;">max-age</td><td style="vertical-align:top;">:</td><td><div></div></td></tr><tr><td style="font-weight:bold;vertical-align:top;">path</td><td style="vertical-align:top;">:</td><td><div>/</div></td></tr><tr><td style="font-weight:bold;vertical-align:top;">secure</td><td style="vertical-align:top;">:</td><td><div></div></td></tr><tr><td style="font-weight:bold;vertical-align:top;">version</td><td style="vertical-align:top;">:</td><td><div></div></td></tr></table></div></td></tr></table></div></td></tr><tr><td style="font-weight:bold;vertical-align:top;">delimiters</td><td style="vertical-align:top;">:</td><td><div><table><tr><td><div>{{</div></td></tr><tr><td><div>}}</div></td></tr></table></div></td></tr><tr><td style="font-weight:bold;vertical-align:top;">files</td><td style="vertical-align:top;">:</td><td><div><table></table></div></td></tr><tr><td style="font-weight:bold;vertical-align:top;">flash</td><td style="vertical-align:top;">:</td><td><div></div></td></tr><tr><td style="font-weight:bold;vertical-align:top;">form_label_separator</td><td style="vertical-align:top;">:</td><td><div></div></td></tr><tr><td style="font-weight:bold;vertical-align:top;">formstyle</td><td style="vertical-align:top;">:</td><td><div>bootstrap3_inline</div></td></tr><tr><td style="font-weight:bold;vertical-align:top;">generic_patterns</td><td style="vertical-align:top;">:</td><td><div><table><tr><td><div>*</div></td></tr></table></div></td></tr><tr><td style="font-weight:bold;vertical-align:top;">google_analytics_id</td><td style="vertical-align:top;">:</td><td><div>None</div></td></tr><tr><td style="font-weight:bold;vertical-align:top;">headers</td><td style="vertical-align:top;">:</td><td><div><table><tr><td style="font-weight:bold;vertical-align:top;">X-Powered-By</td><td style="vertical-align:top;">:</td><td><div>web2py</div></td></tr></table></div></td></tr><tr><td style="font-weight:bold;vertical-align:top;">logo</td><td style="vertical-align:top;">:</td><td><div><a class="navbar-brand" href="http://www.web2py.com/" id="web2py-logo"><b>web<span>2</span>py</b>&trade;&nbsp;</a></div></td></tr><tr><td style="font-weight:bold;vertical-align:top;">menu</td><td style="vertical-align:top;">:</td><td><div><table><tr><td><div><table><tr><td><div>Home</div></td></tr><tr><td><div>False</div></td></tr><tr><td><div>/pampers1/default/index</div></td></tr><tr><td><div><table></table></div></td></tr></table></div></td></tr><tr><td><div><table><tr><td><div>My Sites</div></td></tr><tr><td><div>False</div></td></tr><tr><td><div>/admin/default/site</div></td></tr></table></div></td></tr><tr><td><div><table><tr><td><div>\xe8\xaf\xa5\xe5\xba\x94\xe7\x94\xa8</div></td></tr><tr><td><div>False</div></td></tr><tr><td><div>#</div></td></tr><tr><td><div><table><tr><td><div><table><tr><td><div>Design</div></td></tr><tr><td><div>False</div></td></tr><tr><td><div>/admin/default/design/pampers1</div></td></tr></table></div></td></tr><tr><td><div><li class="divider"></li></div></td></tr><tr><td><div><table><tr><td><div>\xe6\x8e\xa7\xe4\xbb\xb6</div></td></tr><tr><td><div>False</div></td></tr><tr><td><div>/admin/default/edit/pampers1/controllers/default.py</div></td></tr></table></div></td></tr><tr><td><div><table><tr><td><div>\xe6\x9f\xa5\xe7\x9c\x8b</div></td></tr><tr><td><div>False</div></td></tr><tr><td><div>/admin/default/edit/pampers1/views/default/index.html</div></td></tr></table></div></td></tr><tr><td><div><table><tr><td><div>\xe6\x95\xb0\xe6\x8d\xae\xe5\xba\x93\xe6\xa8\xa1\xe5\x9e\x8b</div></td></tr><tr><td><div>False</div></td></tr><tr><td><div>/admin/default/edit/pampers1/models/db.py</div></td></tr></table></div></td></tr><tr><td><div><table><tr><td><div>\xe8\x8f\x9c\xe5\x8d\x95\xe6\xa8\xa1\xe5\x9e\x8b(menu)</div></td></tr><tr><td><div>False</div></td></tr><tr><td><div>/admin/default/edit/pampers1/models/menu.py</div></td></tr></table></div></td></tr><tr><td><div><table><tr><td><div>Config.ini</div></td></tr><tr><td><div>False</div></td></tr><tr><td><div>/admin/default/edit/pampers1/private/appconfig.ini</div></td></tr></table></div></td></tr><tr><td><div><table><tr><td><div>\xe7\xbd\x91\xe9\xa1\xb5\xe5\xb8\x83\xe5\xb1\x80</div></td></tr><tr><td><div>False</div></td></tr><tr><td><div>/admin/default/edit/pampers1/views/layout.html</div></td></tr></table></div></td></tr><tr><td><div><table><tr><td><div>\xe7\xbd\x91\xe9\xa1\xb5\xe6\xa0\xb7\xe5\xbc\x8f\xe8\xa1\xa8</div></td></tr><tr><td><div>False</div></td></tr><tr><td><div>/admin/default/edit/pampers1/static/css/web2py-bootstrap3.css</div></td></tr></table></div></td></tr><tr><td><div><table><tr><td><div>\xe6\x95\xb0\xe6\x8d\xae\xe5\xba\x93</div></td></tr><tr><td><div>False</div></td></tr><tr><td><div>/pampers1/appadmin/index</div></td></tr></table></div></td></tr><tr><td><div><table><tr><td><div>Errors</div></td></tr><tr><td><div>False</div></td></tr><tr><td><div>/admin/default/errors/pampers1</div></td></tr></table></div></td></tr><tr><td><div><table><tr><td><div>\xe5\x85\xb3\xe4\xba\x8e</div></td></tr><tr><td><div>False</div></td></tr><tr><td><div>/admin/default/about/pampers1</div></td></tr></table></div></td></tr></table></div></td></tr></table></div></td></tr><tr><td><div><table><tr><td><div>web2py.com</div></td></tr><tr><td><div>False</div></td></tr><tr><td><div>#</div></td></tr><tr><td><div><table><tr><td><div><table><tr><td><div>\xe4\xb8\x8b\xe8\xbd\xbd</div></td></tr><tr><td><div>False</div></td></tr><tr><td><div>http://www.web2py.com/examples/default/download</div></td></tr></table></div></td></tr><tr><td><div><table><tr><td><div>Support</div></td></tr><tr><td><div>False</div></td></tr><tr><td><div>http://www.web2py.com/examples/default/support</div></td></tr></table></div></td></tr><tr><td><div><table><tr><td><div>Demo</div></td></tr><tr><td><div>False</div></td></tr><tr><td><div>http://web2py.com/demo_admin</div></td></tr></table></div></td></tr><tr><td><div><table><tr><td><div>Quick Examples</div></td></tr><tr><td><div>False</div></td></tr><tr><td><div>http://web2py.com/examples/default/examples</div></td></tr></table></div></td></tr><tr><td><div><table><tr><td><div>FAQ</div></td></tr><tr><td><div>False</div></td></tr><tr><td><div>http://web2py.com/AlterEgo</div></td></tr></table></div></td></tr><tr><td><div><table><tr><td><div>\xe8\xa7\x86\xe9\xa2\x91</div></td></tr><tr><td><div>False</div></td></tr><tr><td><div>http://www.web2py.com/examples/default/videos/</div></td></tr></table></div></td></tr><tr><td><div><table><tr><td><div>Free Applications</div></td></tr><tr><td><div>False</div></td></tr><tr><td><div>http://web2py.com/appliances</div></td></tr></table></div></td></tr><tr><td><div><table><tr><td><div>Plugins</div></td></tr><tr><td><div>False</div></td></tr><tr><td><div>http://web2py.com/plugins</div></td></tr></table></div></td></tr><tr><td><div><table><tr><td><div>Recipes</div></td></tr><tr><td><div>False</div></td></tr><tr><td><div>http://web2pyslices.com/</div></td></tr></table></div></td></tr></table></div></td></tr></table></div></td></tr><tr><td><div><table><tr><td><div>Documentation</div></td></tr><tr><td><div>False</div></td></tr><tr><td><div>#</div></td></tr><tr><td><div><table><tr><td><div><table><tr><td><div>Online book</div></td></tr><tr><td><div>False</div></td></tr><tr><td><div>http://www.web2py.com/book</div></td></tr></table></div></td></tr><tr><td><div><li class="divider"></li></div></td></tr><tr><td><div><table><tr><td><div>Preface</div></td></tr><tr><td><div>False</div></td></tr><tr><td><div>http://www.web2py.com/book/default/chapter/00</div></td></tr></table></div></td></tr><tr><td><div><table><tr><td><div>Introduction</div></td></tr><tr><td><div>False</div></td></tr><tr><td><div>http://www.web2py.com/book/default/chapter/01</div></td></tr></table></div></td></tr><tr><td><div><table><tr><td><div>Python</div></td></tr><tr><td><div>False</div></td></tr><tr><td><div>http://www.web2py.com/book/default/chapter/02</div></td></tr></table></div></td></tr><tr><td><div><table><tr><td><div>\xe6\xa6\x82\xe8\xa7\x88</div></td></tr><tr><td><div>False</div></td></tr><tr><td><div>http://www.web2py.com/book/default/chapter/03</div></td></tr></table></div></td></tr><tr><td><div><table><tr><td><div>The Core</div></td></tr><tr><td><div>False</div></td></tr><tr><td><div>http://www.web2py.com/book/default/chapter/04</div></td></tr></table></div></td></tr><tr><td><div><table><tr><td><div>\xe8\xa7\x86\xe5\x9b\xbe</div></td></tr><tr><td><div>False</div></td></tr><tr><td><div>http://www.web2py.com/book/default/chapter/05</div></td></tr></table></div></td></tr><tr><td><div><table><tr><td><div>\xe6\x95\xb0\xe6\x8d\xae\xe5\xba\x93</div></td></tr><tr><td><div>False</div></td></tr><tr><td><div>http://www.web2py.com/book/default/chapter/06</div></td></tr></table></div></td></tr><tr><td><div><table><tr><td><div>Forms and Validators</div></td></tr><tr><td><div>False</div></td></tr><tr><td><div>http://www.web2py.com/book/default/chapter/07</div></td></tr></table></div></td></tr><tr><td><div><table><tr><td><div>Email and SMS</div></td></tr><tr><td><div>False</div></td></tr><tr><td><div>http://www.web2py.com/book/default/chapter/08</div></td></tr></table></div></td></tr><tr><td><div><table><tr><td><div>Access Control</div></td></tr><tr><td><div>False</div></td></tr><tr><td><div>http://www.web2py.com/book/default/chapter/09</div></td></tr></table></div></td></tr><tr><td><div><table><tr><td><div>Services</div></td></tr><tr><td><div>False</div></td></tr><tr><td><div>http://www.web2py.com/book/default/chapter/10</div></td></tr></table></div></td></tr><tr><td><div><table><tr><td><div>Ajax Recipes</div></td></tr><tr><td><div>False</div></td></tr><tr><td><div>http://www.web2py.com/book/default/chapter/11</div></td></tr></table></div></td></tr><tr><td><div><table><tr><td><div>Components and Plugins</div></td></tr><tr><td><div>False</div></td></tr><tr><td><div>http://www.web2py.com/book/default/chapter/12</div></td></tr></table></div></td></tr><tr><td><div><table><tr><td><div>Deployment Recipes</div></td></tr><tr><td><div>False</div></td></tr><tr><td><div>http://www.web2py.com/book/default/chapter/13</div></td></tr></table></div></td></tr><tr><td><div><table><tr><td><div>Other Recipes</div></td></tr><tr><td><div>False</div></td></tr><tr><td><div>http://www.web2py.com/book/default/chapter/14</div></td></tr></table></div></td></tr><tr><td><div><table><tr><td><div>Helping web2py</div></td></tr><tr><td><div>False</div></td></tr><tr><td><div>http://www.web2py.com/book/default/chapter/15</div></td></tr></table></div></td></tr><tr><td><div><table><tr><td><div>Buy web2py\'s book</div></td></tr><tr><td><div>False</div></td></tr><tr><td><div>http://stores.lulu.com/web2py</div></td></tr></table></div></td></tr></table></div></td></tr></table></div></td></tr><tr><td><div><table><tr><td><div>Community</div></td></tr><tr><td><div>False</div></td></tr><tr><td><div>None</div></td></tr><tr><td><div><table><tr><td><div><table><tr><td><div>Groups</div></td></tr><tr><td><div>False</div></td></tr><tr><td><div>http://www.web2py.com/examples/default/usergroups</div></td></tr></table></div></td></tr><tr><td><div><table><tr><td><div>Twitter</div></td></tr><tr><td><div>False</div></td></tr><tr><td><div>http://twitter.com/web2py</div></td></tr></table></div></td></tr><tr><td><div><table><tr><td><div>Live Chat</div></td></tr><tr><td><div>False</div></td></tr><tr><td><div>http://webchat.freenode.net/?channels=web2py</div></td></tr></table></div></td></tr></table></div></td></tr></table></div></td></tr></table></div></td></tr><tr><td style="font-weight:bold;vertical-align:top;">meta</td><td style="vertical-align:top;">:</td><td><div><table><tr><td style="font-weight:bold;vertical-align:top;">author</td><td style="vertical-align:top;">:</td><td><div>Your Name &lt;you@example.com&gt;</div></td></tr><tr><td style="font-weight:bold;vertical-align:top;">description</td><td style="vertical-align:top;">:</td><td><div>a cool new app</div></td></tr><tr><td style="font-weight:bold;vertical-align:top;">generator</td><td style="vertical-align:top;">:</td><td><div>Web2py Web Framework</div></td></tr><tr><td style="font-weight:bold;vertical-align:top;">keywords</td><td style="vertical-align:top;">:</td><td><div>web2py, python, framework</div></td></tr></table></div></td></tr><tr><td style="font-weight:bold;vertical-align:top;">models_to_run</td><td style="vertical-align:top;">:</td><td><div><table><tr><td><div>^\\w+\\.py$</div></td></tr><tr><td><div>^default/\\w+\\.py$</div></td></tr><tr><td><div>^default/index/\\w+\\.py$</div></td></tr></table></div></td></tr><tr><td style="font-weight:bold;vertical-align:top;">postprocessing</td><td style="vertical-align:top;">:</td><td><div><table></table></div></td></tr><tr><td style="font-weight:bold;vertical-align:top;">session_client</td><td style="vertical-align:top;">:</td><td><div>113.108.155.51</div></td></tr><tr><td style="font-weight:bold;vertical-align:top;">session_cookie_compression_level</td><td style="vertical-align:top;">:</td><td><div>None</div></td></tr><tr><td style="font-weight:bold;vertical-align:top;">session_cookie_expires</td><td style="vertical-align:top;">:</td><td><div>None</div></td></tr><tr><td style="font-weight:bold;vertical-align:top;">session_cookie_key</td><td style="vertical-align:top;">:</td><td><div>None</div></td></tr><tr><td style="font-weight:bold;vertical-align:top;">session_data_name</td><td style="vertical-align:top;">:</td><td><div>session_data_pampers1</div></td></tr><tr><td style="font-weight:bold;vertical-align:top;">session_file</td><td style="vertical-align:top;">:</td><td><div>&lt;open file &#x27;/home/henry/prd_web2py/applications/pampers1/sessions/02a/08f/113.108.155.51-ad3d9fc7-7fce-447f-8cfb-55faf62e1b33&#x27;, mode &#x27;rb+&#x27; at 0x7f8b5dd98150&gt;</div></td></tr><tr><td style="font-weight:bold;vertical-align:top;">session_filename</td><td style="vertical-align:top;">:</td><td><div>/home/henry/prd_web2py/applications/pampers1/sessions/113.108.155.51-ad3d9fc7-7fce-447f-8cfb-55faf62e1b33</div></td></tr><tr><td style="font-weight:bold;vertical-align:top;">session_hash</td><td style="vertical-align:top;">:</td><td><div>67f759f38f6942bb4bde891f6c81ca45</div></td></tr><tr><td style="font-weight:bold;vertical-align:top;">session_id</td><td style="vertical-align:top;">:</td><td><div>113.108.155.51-ad3d9fc7-7fce-447f-8cfb-55faf62e1b33</div></td></tr><tr><td style="font-weight:bold;vertical-align:top;">session_id_name</td><td style="vertical-align:top;">:</td><td><div>session_id_pampers1</div></td></tr><tr><td style="font-weight:bold;vertical-align:top;">session_locked</td><td style="vertical-align:top;">:</td><td><div>True</div></td></tr><tr><td style="font-weight:bold;vertical-align:top;">session_masterapp</td><td style="vertical-align:top;">:</td><td><div>pampers1</div></td></tr><tr><td style="font-weight:bold;vertical-align:top;">session_new</td><td style="vertical-align:top;">:</td><td><div>False</div></td></tr><tr><td style="font-weight:bold;vertical-align:top;">session_storage_type</td><td style="vertical-align:top;">:</td><td><div>file</div></td></tr><tr><td style="font-weight:bold;vertical-align:top;">status</td><td style="vertical-align:top;">:</td><td><div>200</div></td></tr><tr><td style="font-weight:bold;vertical-align:top;">subtitle</td><td style="vertical-align:top;">:</td><td><div></div></td></tr><tr><td style="font-weight:bold;vertical-align:top;">title</td><td style="vertical-align:top;">:</td><td><div>Pampers1</div></td></tr><tr><td style="font-weight:bold;vertical-align:top;">view</td><td style="vertical-align:top;">:</td><td><div>default/index.html</div></td></tr></table></div>'
tRp184
sS'locals'
p185
(dp186
S'rowcontent'
p187
S"{'address': u'\\u8001\\u6d32\\u9547\\u65b0\\u5729\\u7ec425\\u53f7', 'city': u'\\u5b89\\u5e86\\u5e02', 'county': u'\\u679e\\u9633\\u53bf', 'date_time': u'20151028 06:16:05', 'ex_id': u'PP02075218', 'mobile': u'13306520461', 'order_id': u'1516161', 'pregnancy': u'\\u5b5538\\u54683\\u5929', 'product_piece': u'8', 'product_size': u'NB', ...}"
p188
sS'rows'
p189
S'650'
p190
sS'is_correct'
p191
S'1'
sS'wb1'
p192
S'<openpyxl.workbook.workbook.Workbook object>'
p193
sS'i'
S'0'
sS'cols'
p194
S'12'
p195
sS'ws1'
p196
S'<Worksheet "pampers_all_20151104_1">'
p197
sS'header'
p198
S"['order_id', 'ex_id', 'user_name', 'mobile', 'province', 'city', 'county', 'address', 'pregnancy', 'product_piece', 'product_size', 'date_time']"
p199
sg70
S"<open file '<fdopen>', mode 'w+b'>"
p200
sS'buf_list'
p201
S"[{'address_bak': '\\xe7\\xac\\xac\\xe4\\xb8\\x80\\xe4\\xba\\xba\\xe6\\xb0\\x91\\xe5\\x8c\\xbb\\xe9\\x99\\xa2\\xe4\\xba\\xa7\\xe7\\xa7\\x91', 'ex_id': 'BO1505040695600', 'mobile': 18054028865L, 'order_id': 680222, 'product_name': '8\\xe7\\x89\\x87S\\xe7\\xa0\\x81', 'user_name': '\\xe5\\x88\\x98\\xe7\\x8e\\x89\\xe7\\x87\\x95'}, {'address_bak': '\\xe9\\x99\\x88\\xe7\\x91\\xb6\\xe6\\xb9\\x96\\xe9\\x95\\x87\\xe8\\x8a\\xb1\\xe5\\x9b\\xad\\xe8\\xa1\\x97\\xe9\\x81\\x93\\xe4\\xb8\\x89\\xe8\\xa7\\x92\\xe5\\x8c\\xba\\xe8\\xbe\\xb9\\xe5\\x8d\\x83\\xe7\\xa7\\x8d\\xe9\\x97\\xa8\\xe4\\xb8\\x9a', 'ex_id': '\\xe8\\x90\\x8d\\xe7\\xac\\x91', 'mobile': 13624175683L, 'order_id': 684873, 'product_name': '8\\xe7\\x89\\x87S\\xe7\\xa0\\x81', 'user_name': '\\xe6\\xb1\\xaa\\xe4\\xb8\\xbd\\xe8\\x90\\x8d'}, {'address_bak': '\\xe6\\x9e\\x9e\\xe9\\x98\\xb3\\xe9\\x95\\x87\\xe6\\x96\\xb0\\xe5\\xa1\\x98\\xe8\\xa5\\xbf\\xe8\\xb7\\xaf26\\xe5\\x8f\\xb7\\xe5\\x9b\\xbd\\xe6\\xb5\\xb7\\xe6\\x8a\\x95\\xe8\\xb5\\x84\\xe6\\x9c\\x89\\xe9\\x99\\x90\\xe5\\x85\\xac\\xe5\\x8f\\xb8\\xe4\\xb8\\x80\\xe6\\xa5\\xbc', 'ex_id': '\\xe5\\xa4\\xa7\\xe7\\x8c\\xa9\\xe7\\x8c\\xa9111', 'mobile': 15056668000L, 'order_id': 732628, 'product_name': '8\\xe7\\x89\\x87S\\xe7\\xa0\\x81', 'user_name': '\\xe9\\x92\\xb1\\xe7\\xa3\\x8a'}, {'address_bak': '\\xe9\\xba\\x92\\xe9\\xba\\x9f\\xe9\\x95\\x87\\xe9\\xba\\x92\\xe9\\xba\\x9f\\xe6\\x9d\\x91\\xe5\\xae\\x98\\xe5\\xba\\x84\\xe7\\xbb\\x8420\\xe5\\x8f\\xb7', 'ex_id': '\\xe4\\xb8\\x8d\\xe9\\x94\\x88\\xe9\\x92\\xa2\\xe5\\x8e\\x82\\xe5\\xae\\xb6', 'mobile': 13676768193L, 'order_id': 732629, 'product_name': '8\\xe7\\x89\\x87S\\xe7\\xa0\\x81', 'user_name': '\\xe6\\x96\\xb9\\xe9\\x87\\x91\\xe4\\xb8\\xbd'}, {'address_bak': '\\xe6\\x9e\\x9e\\xe9\\x98\\xb3\\xe9\\x95\\x87\\xe6\\xb9\\x96\\xe6\\xbb\\xa8\\xe4\\xb8\\x9c\\xe8\\xb7\\xaf14\\xe5\\x8f\\xb7\\xe4\\xb8\\xad\\xe5\\x9b\\xbd\\xe4\\xba\\xba\\xe6\\xb0\\x91\\xe8\\xb4\\xa2\\xe4\\xba\\xa7\\xe4\\xbf\\x9d\\xe9\\x99\\xa9\\xe8\\x82\\xa1\\xe4\\xbb\\xbd\\xe6\\x9c\\x89\\xe9\\x99\\x90\\xe5\\x85\\xac\\xe5\\x8f\\xb8\\xe6\\x9e\\x9e\\xe9\\x98\\xb3\\xe6\\x94\\xaf\\xe5\\x85\\xac\\xe5\\x8f\\xb8', 'ex_id': 20150317, 'mobile': 18075395009L, 'order_id': 758242, 'product_name': '8\\xe7\\x89\\x87S\\xe7\\xa0\\x81', 'user_name': '\\xe9\\xbd\\x90\\xe5\\x81\\xa5'}, {'address_bak': '\\xe9\\x92\\xb1\\xe6\\xa1\\xa5\\xe9\\x95\\x87\\xe5\\xae\\xa3\\xe5\\xba\\x84\\xe6\\x9d\\x91', 'ex_id': '\\xe5\\x8f\\x97\\xe4\\xba\\x86\\xe4\\xbc\\xa4\\xe8\\xbf\\x9e\\xe5\\xbe\\xae\\xe7\\xac\\x91\\xe9\\x83\\xbd\\xe5\\xbd\\xb7\\xe5\\xbe\\xa8', 'mobile': 15825130984L, 'order_id': 758243, 'product_name': '8\\xe7\\x89\\x87NB\\xe7\\xa0\\x81', 'user_name': '\\xe4\\xbd\\x99\\xe7\\xad\\xb1\\xe6\\xb6\\xb5'}, {'address_bak': '\\xe9\\xa1\\xb9\\xe9\\x93\\xba\\xe9\\x95\\x87\\xe7\\x99\\xbd\\xe7\\x9f\\xb3\\xe6\\x9d\\x91', 'ex_id': '\\xe8\\x8f\\x8f\\xe6\\xb3\\xbd\\xe9\\x9c\\x82\\xe6\\x9b\\xa6', 'mobile': 15856547801L, 'order_id': 758244, 'product_name': '8\\xe7\\x89\\x87NB\\xe7\\xa0\\x81', 'user_name': '\\xe5\\x90\\xb4\\xe5\\x85\\xa8'}, {'address_bak': '\\xe6\\xa8\\xaa\\xe5\\x9f\\xa0\\xe9\\x95\\x87\\xe6\\xa8\\xaa\\xe5\\x9f\\xa0\\xe6\\x9d\\x91\\xe6\\x96\\xb0\\xe6\\xb0\\x91\\xe7\\xbb\\x8419\\xe5\\x8f\\xb7', 'ex_id': '\\xe5\\xb0\\x8f\\xe4\\xb9\\x8c\\xe9\\xbe\\x9fff', 'mobile': 18156957780L, 'order_id': 798294, 'product_name': '8\\xe7\\x89\\x87NB\\xe7\\xa0\\x81', 'user_name': '\\xe4\\xbb\\xbb\\xe9\\xa3\\x9e'}, {'address_bak': '\\xe9\\x92\\xb1\\xe9\\x93\\xba\\xe4\\xb9\\xa1\\xe9\\xbb\\x84\\xe5\\xb2\\x97\\xe6\\x9d\\x91\\xe4\\xba\\x8c\\xe7\\xbb\\x84', 'ex_id': 'PP01156352', 'mobile': 15261038740L, 'order_id': 813136, 'product_name': '8\\xe7\\x89\\x87NB\\xe7\\xa0\\x81', 'user_name': '\\xe7\\xab\\xa0\\xe7\\x8e\\x89\\xe4\\xba\\x91'}, {'address_bak': '\\xe9\\xa1\\xb9\\xe9\\x93\\xba\\xe9\\x95\\x87\\xe9\\xbe\\x99\\xe8\\x99\\x8e\\xe6\\x9d\\x9116\\xe7\\xbb\\x84', 'ex_id': 'PP01162273', 'mobile': 17755642257L, 'order_id': 813137, 'product_name': '8\\xe7\\x89\\x87NB\\xe7\\xa0\\x81', 'user_name': '\\xe6\\x9f\\xa5\\xe6\\x96\\x87\\xe5\\xa8\\x9f'}, {'address_bak': '\\xe6\\xb1\\xa4\\xe6\\xb2\\x9f\\xe9\\x95\\x87\\xe5\\x8b\\xa4\\xe4\\xbf\\xad\\xe5\\xb0\\x8f\\xe5\\xad\\xa6', 'ex_id': 'PP01187927', 'mobile': 13889528507L, 'order_id': 833452, 'product_name': '8\\xe7\\x89\\x87NB\\xe7\\xa0\\x81', 'user_name': '\\xe8\\xae\\xb8\\xe6\\x96\\x87\\xe5\\xa8\\x9f'}, {'address_bak': '\\xe9\\xba\\x92\\xe9\\xba\\x9f\\xe9\\x95\\x87\\xe6\\xa2\\x85\\xe8\\x8a\\xb1\\xe6\\x9d\\x91', 'ex_id': 'PP01203062', 'mobile': 15212910062L, 'order_id': 839759, 'product_name': '18\\xe7\\x89\\x87NB\\xe7\\xa0\\x81', 'user_name': '\\xe6\\xa8\\x8a\\xe6\\x98\\xad\\xe5\\xa8\\xa3'}, {'address_bak': '\\xe6\\x9e\\x9e\\xe9\\x98\\xb3\\xe9\\x95\\x87\\xe9\\x93\\xb6\\xe5\\xa1\\x98\\xe8\\xa5\\xbf\\xe8\\xb7\\xaf39-25\\xe5\\x90\\x8d\\xe6\\xb4\\xbe', 'ex_id': '\\xe5\\xad\\x95\\xe6\\x9c\\x9f\\xe7\\x94\\xa8\\xe6\\x88\\xb796876582', 'mobile': 13625669657L, 'order_id': 843250, 'product_name': '8\\xe7\\x89\\x87NB\\xe7\\xa0\\x81', 'user_name': '\\xe6\\x96\\xb9\\xe4\\xbf\\xae\\xe6\\x9d\\xa5'}, {'address_bak': '\\xe6\\xb9\\x96\\xe6\\xbb\\xa8\\xe8\\xb7\\xaf\\xe8\\xb4\\xa2\\xe5\\xaf\\x8c\\xe5\\xb9\\xbf\\xe5\\x9c\\xba\\xe5\\x8d\\x8e\\xe6\\xb6\\xa6\\xe8\\x8b\\x8f\\xe6\\x9e\\x9c\\xe4\\xba\\x8c\\xe6\\xa5\\xbc', 'ex_id': 'Daniel_\\xe8\\xb1\\x86\\xe8\\xb1\\x86', 'mobile': 18505562214L, 'order_id': 843251, 'product_name': '8\\xe7\\x89\\x87NB\\xe7\\xa0\\x81', 'user_name': 'Coral'}, {'address_bak': '\\xe9\\x87\\x91\\xe7\\xa4\\xbe\\xe4\\xb9\\xa1\\xe9\\x87\\x91\\xe6\\xb8\\xa1\\xe6\\x9d\\x91\\xe8\\x80\\x81\\xe5\\xb1\\x8b\\xe7\\xbb\\x8423\\xe5\\x8f\\xb7', 'ex_id': '\\xe5\\xa4\\xa7\\xe5\\xae\\x9d\\xe9\\x99\\x88\\xe6\\xa2\\xa6\\xe7\\x90\\xaa', 'mobile': 13167717620L, 'order_id': 843252, 'product_name': '8\\xe7\\x89\\x87NB\\xe7\\xa0\\x81', 'user_name': '\\xe5\\x90\\xb4\\xe7\\x8e\\x89\\xe7\\x90\\xb4'}, {'address_bak': '\\xe5\\x8e\\xbf\\xe5\\x9f\\x8e\\xe7\\x8b\\xae\\xe5\\xb3\\xb0\\xe5\\xb1\\xb1\\xe5\\xb0\\x8f\\xe5\\x8c\\xba\\xe4\\xb8\\x89\\xe7\\xbb\\x84\\xe5\\x9b\\xa2', 'ex_id': '\\xe8\\x90\\x8d\\xe5\\xae\\x9d\\xe5\\xae\\x9d0924', 'mobile': 15505050591L, 'order_id': 843253, 'product_name': '8\\xe7\\x89\\x87S\\xe7\\xa0\\x81', 'user_name': '\\xe9\\x99\\x86\\xe7\\x8e\\x89\\xe8\\x90\\x8d'}, {'address_bak': '\\xe9\\xa1\\xb9\\xe9\\x93\\xba\\xe9\\x95\\x87\\xe9\\xbe\\x99\\xe8\\x99\\x8e\\xe6\\x9d\\x9116\\xe7\\xbb\\x84', 'ex_id': 'PP01226342', 'mobile': 17755642257L, 'order_id': 880587, 'product_name': '18\\xe7\\x89\\x87NB\\xe7\\xa0\\x81', 'user_name': '\\xe9\\x99\\xb6\\xe5\\xaf\\x86'}, {'address_bak': '\\xe9\\x92\\xb1\\xe6\\xa1\\xa5\\xe9\\x95\\x87\\xe9\\x92\\xb1\\xe6\\xa1\\xa5\\xe8\\xa1\\x97\\xe9\\x81\\x9366\\xe5\\x8f\\xb7', 'ex_id': 'PP01234573', 'mobile': 15212939679L, 'order_id': 886998, 'product_name': '18\\xe7\\x89\\x87S\\xe7\\xa0\\x81', 'user_name': '\\xe5\\x90\\xb4\\xe7\\xa7\\x80'}, {'address_bak': '\\xe9\\x99\\x88\\xe7\\x91\\xb6\\xe6\\xb9\\x96\\xe9\\x95\\x87\\xe5\\xae\\x98\\xe6\\xb8\\xa1\\xe6\\x9d\\x91\\xe5\\x9b\\x9b\\xe6\\x96\\xb9\\xe7\\xbb\\x8419\\xe5\\x8f\\xb7', 'ex_id': 'PP01277353', 'mobile': 15755622043L, 'order_id': 898297, 'product_name': '8\\xe7\\x89\\x87NB\\xe7\\xa0\\x81', 'user_name': '\\xe8\\xb0\\xa2\\xe4\\xb8\\xbd'}, {'address_bak': '\\xe4\\xba\\xba\\xe6\\xb0\\x91\\xe5\\x8c\\xbb\\xe9\\x99\\xa2\\xe6\\x80\\xa5\\xe8\\xaf\\x8a\\xe7\\xa7\\x91', 'ex_id': 'PP01269122', 'mobile': 18955659806L, 'order_id': 898298, 'product_name': '18\\xe7\\x89\\x87NB\\xe7\\xa0\\x81', 'user_name': '\\xe5\\x89\\x8d\\xe7\\x9d\\xbf'}, ...]"
p202
sssS'traceback'
p203
S'Traceback (most recent call last):\n  File "/home/henry/prd_web2py/gluon/restricted.py", line 227, in restricted\n    exec ccode in environment\n  File "/home/henry/prd_web2py/applications/pampers1/controllers/default.py", line 528, in <module>\n  File "/home/henry/prd_web2py/gluon/globals.py", line 412, in <lambda>\n    self._caller = lambda f: f()\n  File "/home/henry/prd_web2py/applications/pampers1/controllers/default.py", line 488, in index\n    add_pampers(request.vars.csvfile2.file)\n  File "/home/henry/prd_web2py/applications/pampers1/controllers/default.py", line 402, in add_pampers\n    if buf_list[i][\'product_name\'].startswith((rowcontent[\'product_piece\'])):\nUnicodeDecodeError: \'ascii\' codec can\'t decode byte 0xe7 in position 1: ordinal not in range(128)\n'
p204
s.